Archive member included to satisfy reference by file (symbol)

d:/at32ide/platform/tools/gcc-arm-none-eabi-10.3-2021.10/bin/../lib/gcc/arm-none-eabi/10.3.1/thumb/v7e-m+fp/hard\libgcc.a(_arm_muldf3.o)
                              ./user/main.o (__aeabi_dmul)
d:/at32ide/platform/tools/gcc-arm-none-eabi-10.3-2021.10/bin/../lib/gcc/arm-none-eabi/10.3.1/thumb/v7e-m+fp/hard\libgcc.a(_arm_addsubdf3.o)
                              ./user/main.o (__aeabi_dsub)
d:/at32ide/platform/tools/gcc-arm-none-eabi-10.3-2021.10/bin/../lib/gcc/arm-none-eabi/10.3.1/thumb/v7e-m+fp/hard\libgcc.a(_arm_muldivdf3.o)
                              ./user/main.o (__aeabi_ddiv)
d:/at32ide/platform/tools/gcc-arm-none-eabi-10.3-2021.10/bin/../lib/gcc/arm-none-eabi/10.3.1/../../../../arm-none-eabi/lib/thumb/v7e-m+fp/hard\libg_nano.a(lib_a-exit.o)
                              d:/at32ide/platform/tools/gcc-arm-none-eabi-10.3-2021.10/bin/../lib/gcc/arm-none-eabi/10.3.1/../../../../arm-none-eabi/lib/thumb/v7e-m+fp/hard/crt0.o (exit)
d:/at32ide/platform/tools/gcc-arm-none-eabi-10.3-2021.10/bin/../lib/gcc/arm-none-eabi/10.3.1/../../../../arm-none-eabi/lib/thumb/v7e-m+fp/hard\libg_nano.a(lib_a-impure.o)
                              d:/at32ide/platform/tools/gcc-arm-none-eabi-10.3-2021.10/bin/../lib/gcc/arm-none-eabi/10.3.1/../../../../arm-none-eabi/lib/thumb/v7e-m+fp/hard\libg_nano.a(lib_a-exit.o) (_global_impure_ptr)
d:/at32ide/platform/tools/gcc-arm-none-eabi-10.3-2021.10/bin/../lib/gcc/arm-none-eabi/10.3.1/../../../../arm-none-eabi/lib/thumb/v7e-m+fp/hard\libg_nano.a(lib_a-init.o)
                              d:/at32ide/platform/tools/gcc-arm-none-eabi-10.3-2021.10/bin/../lib/gcc/arm-none-eabi/10.3.1/../../../../arm-none-eabi/lib/thumb/v7e-m+fp/hard/crt0.o (__libc_init_array)
d:/at32ide/platform/tools/gcc-arm-none-eabi-10.3-2021.10/bin/../lib/gcc/arm-none-eabi/10.3.1/../../../../arm-none-eabi/lib/thumb/v7e-m+fp/hard\libg_nano.a(lib_a-memset.o)
                              d:/at32ide/platform/tools/gcc-arm-none-eabi-10.3-2021.10/bin/../lib/gcc/arm-none-eabi/10.3.1/../../../../arm-none-eabi/lib/thumb/v7e-m+fp/hard/crt0.o (memset)
d:/at32ide/platform/tools/gcc-arm-none-eabi-10.3-2021.10/bin/../lib/gcc/arm-none-eabi/10.3.1/../../../../arm-none-eabi/lib/thumb/v7e-m+fp/hard\libg_nano.a(lib_a-nano-vfprintf_float.o)
                              (_printf_float)
d:/at32ide/platform/tools/gcc-arm-none-eabi-10.3-2021.10/bin/../lib/gcc/arm-none-eabi/10.3.1/../../../../arm-none-eabi/lib/thumb/v7e-m+fp/hard\libg_nano.a(lib_a-nano-vfprintf_i.o)
                              d:/at32ide/platform/tools/gcc-arm-none-eabi-10.3-2021.10/bin/../lib/gcc/arm-none-eabi/10.3.1/../../../../arm-none-eabi/lib/thumb/v7e-m+fp/hard\libg_nano.a(lib_a-nano-vfprintf_float.o) (_printf_common)
d:/at32ide/platform/tools/gcc-arm-none-eabi-10.3-2021.10/bin/../lib/gcc/arm-none-eabi/10.3.1/../../../../arm-none-eabi/lib/thumb/v7e-m+fp/hard\libg_nano.a(lib_a-printf.o)
                              ./user/main.o (printf)
d:/at32ide/platform/tools/gcc-arm-none-eabi-10.3-2021.10/bin/../lib/gcc/arm-none-eabi/10.3.1/../../../../arm-none-eabi/lib/thumb/v7e-m+fp/hard\libg_nano.a(lib_a-puts.o)
                              ./user/main.o (puts)
d:/at32ide/platform/tools/gcc-arm-none-eabi-10.3-2021.10/bin/../lib/gcc/arm-none-eabi/10.3.1/../../../../arm-none-eabi/lib/thumb/v7e-m+fp/hard\libg_nano.a(lib_a-setvbuf.o)
                              ./bsp/at32f403a_407_board.o (setvbuf)
d:/at32ide/platform/tools/gcc-arm-none-eabi-10.3-2021.10/bin/../lib/gcc/arm-none-eabi/10.3.1/../../../../arm-none-eabi/lib/thumb/v7e-m+fp/hard\libg_nano.a(lib_a-strlen.o)
                              d:/at32ide/platform/tools/gcc-arm-none-eabi-10.3-2021.10/bin/../lib/gcc/arm-none-eabi/10.3.1/../../../../arm-none-eabi/lib/thumb/v7e-m+fp/hard\libg_nano.a(lib_a-nano-vfprintf_float.o) (strlen)
d:/at32ide/platform/tools/gcc-arm-none-eabi-10.3-2021.10/bin/../lib/gcc/arm-none-eabi/10.3.1/../../../../arm-none-eabi/lib/thumb/v7e-m+fp/hard\libg_nano.a(lib_a-wbuf.o)
                              d:/at32ide/platform/tools/gcc-arm-none-eabi-10.3-2021.10/bin/../lib/gcc/arm-none-eabi/10.3.1/../../../../arm-none-eabi/lib/thumb/v7e-m+fp/hard\libg_nano.a(lib_a-puts.o) (__swbuf_r)
d:/at32ide/platform/tools/gcc-arm-none-eabi-10.3-2021.10/bin/../lib/gcc/arm-none-eabi/10.3.1/../../../../arm-none-eabi/lib/thumb/v7e-m+fp/hard\libg_nano.a(lib_a-wsetup.o)
                              d:/at32ide/platform/tools/gcc-arm-none-eabi-10.3-2021.10/bin/../lib/gcc/arm-none-eabi/10.3.1/../../../../arm-none-eabi/lib/thumb/v7e-m+fp/hard\libg_nano.a(lib_a-puts.o) (__swsetup_r)
d:/at32ide/platform/tools/gcc-arm-none-eabi-10.3-2021.10/bin/../lib/gcc/arm-none-eabi/10.3.1/../../../../arm-none-eabi/lib/thumb/v7e-m+fp/hard\libg_nano.a(lib_a-dtoa.o)
                              d:/at32ide/platform/tools/gcc-arm-none-eabi-10.3-2021.10/bin/../lib/gcc/arm-none-eabi/10.3.1/../../../../arm-none-eabi/lib/thumb/v7e-m+fp/hard\libg_nano.a(lib_a-nano-vfprintf_float.o) (_dtoa_r)
d:/at32ide/platform/tools/gcc-arm-none-eabi-10.3-2021.10/bin/../lib/gcc/arm-none-eabi/10.3.1/../../../../arm-none-eabi/lib/thumb/v7e-m+fp/hard\libg_nano.a(lib_a-fflush.o)
                              d:/at32ide/platform/tools/gcc-arm-none-eabi-10.3-2021.10/bin/../lib/gcc/arm-none-eabi/10.3.1/../../../../arm-none-eabi/lib/thumb/v7e-m+fp/hard\libg_nano.a(lib_a-setvbuf.o) (_fflush_r)
d:/at32ide/platform/tools/gcc-arm-none-eabi-10.3-2021.10/bin/../lib/gcc/arm-none-eabi/10.3.1/../../../../arm-none-eabi/lib/thumb/v7e-m+fp/hard\libg_nano.a(lib_a-findfp.o)
                              d:/at32ide/platform/tools/gcc-arm-none-eabi-10.3-2021.10/bin/../lib/gcc/arm-none-eabi/10.3.1/../../../../arm-none-eabi/lib/thumb/v7e-m+fp/hard\libg_nano.a(lib_a-printf.o) (__sinit)
d:/at32ide/platform/tools/gcc-arm-none-eabi-10.3-2021.10/bin/../lib/gcc/arm-none-eabi/10.3.1/../../../../arm-none-eabi/lib/thumb/v7e-m+fp/hard\libg_nano.a(lib_a-fwalk.o)
                              d:/at32ide/platform/tools/gcc-arm-none-eabi-10.3-2021.10/bin/../lib/gcc/arm-none-eabi/10.3.1/../../../../arm-none-eabi/lib/thumb/v7e-m+fp/hard\libg_nano.a(lib_a-findfp.o) (_fwalk)
d:/at32ide/platform/tools/gcc-arm-none-eabi-10.3-2021.10/bin/../lib/gcc/arm-none-eabi/10.3.1/../../../../arm-none-eabi/lib/thumb/v7e-m+fp/hard\libg_nano.a(lib_a-localeconv.o)
                              d:/at32ide/platform/tools/gcc-arm-none-eabi-10.3-2021.10/bin/../lib/gcc/arm-none-eabi/10.3.1/../../../../arm-none-eabi/lib/thumb/v7e-m+fp/hard\libg_nano.a(lib_a-nano-vfprintf_float.o) (_localeconv_r)
d:/at32ide/platform/tools/gcc-arm-none-eabi-10.3-2021.10/bin/../lib/gcc/arm-none-eabi/10.3.1/../../../../arm-none-eabi/lib/thumb/v7e-m+fp/hard\libg_nano.a(lib_a-lock.o)
                              d:/at32ide/platform/tools/gcc-arm-none-eabi-10.3-2021.10/bin/../lib/gcc/arm-none-eabi/10.3.1/../../../../arm-none-eabi/lib/thumb/v7e-m+fp/hard\libg_nano.a(lib_a-findfp.o) (__retarget_lock_init_recursive)
d:/at32ide/platform/tools/gcc-arm-none-eabi-10.3-2021.10/bin/../lib/gcc/arm-none-eabi/10.3.1/../../../../arm-none-eabi/lib/thumb/v7e-m+fp/hard\libg_nano.a(lib_a-makebuf.o)
                              d:/at32ide/platform/tools/gcc-arm-none-eabi-10.3-2021.10/bin/../lib/gcc/arm-none-eabi/10.3.1/../../../../arm-none-eabi/lib/thumb/v7e-m+fp/hard\libg_nano.a(lib_a-setvbuf.o) (__swhatbuf_r)
d:/at32ide/platform/tools/gcc-arm-none-eabi-10.3-2021.10/bin/../lib/gcc/arm-none-eabi/10.3.1/../../../../arm-none-eabi/lib/thumb/v7e-m+fp/hard\libg_nano.a(lib_a-malloc.o)
                              d:/at32ide/platform/tools/gcc-arm-none-eabi-10.3-2021.10/bin/../lib/gcc/arm-none-eabi/10.3.1/../../../../arm-none-eabi/lib/thumb/v7e-m+fp/hard\libg_nano.a(lib_a-setvbuf.o) (malloc)
d:/at32ide/platform/tools/gcc-arm-none-eabi-10.3-2021.10/bin/../lib/gcc/arm-none-eabi/10.3.1/../../../../arm-none-eabi/lib/thumb/v7e-m+fp/hard\libg_nano.a(lib_a-memchr.o)
                              d:/at32ide/platform/tools/gcc-arm-none-eabi-10.3-2021.10/bin/../lib/gcc/arm-none-eabi/10.3.1/../../../../arm-none-eabi/lib/thumb/v7e-m+fp/hard\libg_nano.a(lib_a-nano-vfprintf_i.o) (memchr)
d:/at32ide/platform/tools/gcc-arm-none-eabi-10.3-2021.10/bin/../lib/gcc/arm-none-eabi/10.3.1/../../../../arm-none-eabi/lib/thumb/v7e-m+fp/hard\libg_nano.a(lib_a-memcpy-stub.o)
                              d:/at32ide/platform/tools/gcc-arm-none-eabi-10.3-2021.10/bin/../lib/gcc/arm-none-eabi/10.3.1/../../../../arm-none-eabi/lib/thumb/v7e-m+fp/hard\libg_nano.a(lib_a-dtoa.o) (memcpy)
d:/at32ide/platform/tools/gcc-arm-none-eabi-10.3-2021.10/bin/../lib/gcc/arm-none-eabi/10.3.1/../../../../arm-none-eabi/lib/thumb/v7e-m+fp/hard\libg_nano.a(lib_a-mprec.o)
                              d:/at32ide/platform/tools/gcc-arm-none-eabi-10.3-2021.10/bin/../lib/gcc/arm-none-eabi/10.3.1/../../../../arm-none-eabi/lib/thumb/v7e-m+fp/hard\libg_nano.a(lib_a-dtoa.o) (_Balloc)
d:/at32ide/platform/tools/gcc-arm-none-eabi-10.3-2021.10/bin/../lib/gcc/arm-none-eabi/10.3.1/../../../../arm-none-eabi/lib/thumb/v7e-m+fp/hard\libg_nano.a(lib_a-nano-callocr.o)
                              d:/at32ide/platform/tools/gcc-arm-none-eabi-10.3-2021.10/bin/../lib/gcc/arm-none-eabi/10.3.1/../../../../arm-none-eabi/lib/thumb/v7e-m+fp/hard\libg_nano.a(lib_a-mprec.o) (_calloc_r)
d:/at32ide/platform/tools/gcc-arm-none-eabi-10.3-2021.10/bin/../lib/gcc/arm-none-eabi/10.3.1/../../../../arm-none-eabi/lib/thumb/v7e-m+fp/hard\libg_nano.a(lib_a-nano-freer.o)
                              d:/at32ide/platform/tools/gcc-arm-none-eabi-10.3-2021.10/bin/../lib/gcc/arm-none-eabi/10.3.1/../../../../arm-none-eabi/lib/thumb/v7e-m+fp/hard\libg_nano.a(lib_a-setvbuf.o) (_free_r)
d:/at32ide/platform/tools/gcc-arm-none-eabi-10.3-2021.10/bin/../lib/gcc/arm-none-eabi/10.3.1/../../../../arm-none-eabi/lib/thumb/v7e-m+fp/hard\libg_nano.a(lib_a-nano-mallocr.o)
                              d:/at32ide/platform/tools/gcc-arm-none-eabi-10.3-2021.10/bin/../lib/gcc/arm-none-eabi/10.3.1/../../../../arm-none-eabi/lib/thumb/v7e-m+fp/hard\libg_nano.a(lib_a-findfp.o) (_malloc_r)
d:/at32ide/platform/tools/gcc-arm-none-eabi-10.3-2021.10/bin/../lib/gcc/arm-none-eabi/10.3.1/../../../../arm-none-eabi/lib/thumb/v7e-m+fp/hard\libg_nano.a(lib_a-nano-vfprintf.o)
                              d:/at32ide/platform/tools/gcc-arm-none-eabi-10.3-2021.10/bin/../lib/gcc/arm-none-eabi/10.3.1/../../../../arm-none-eabi/lib/thumb/v7e-m+fp/hard\libg_nano.a(lib_a-printf.o) (_vfprintf_r)
d:/at32ide/platform/tools/gcc-arm-none-eabi-10.3-2021.10/bin/../lib/gcc/arm-none-eabi/10.3.1/../../../../arm-none-eabi/lib/thumb/v7e-m+fp/hard\libg_nano.a(lib_a-sbrkr.o)
                              d:/at32ide/platform/tools/gcc-arm-none-eabi-10.3-2021.10/bin/../lib/gcc/arm-none-eabi/10.3.1/../../../../arm-none-eabi/lib/thumb/v7e-m+fp/hard\libg_nano.a(lib_a-nano-mallocr.o) (_sbrk_r)
d:/at32ide/platform/tools/gcc-arm-none-eabi-10.3-2021.10/bin/../lib/gcc/arm-none-eabi/10.3.1/../../../../arm-none-eabi/lib/thumb/v7e-m+fp/hard\libg_nano.a(lib_a-stdio.o)
                              d:/at32ide/platform/tools/gcc-arm-none-eabi-10.3-2021.10/bin/../lib/gcc/arm-none-eabi/10.3.1/../../../../arm-none-eabi/lib/thumb/v7e-m+fp/hard\libg_nano.a(lib_a-findfp.o) (__sread)
d:/at32ide/platform/tools/gcc-arm-none-eabi-10.3-2021.10/bin/../lib/gcc/arm-none-eabi/10.3.1/../../../../arm-none-eabi/lib/thumb/v7e-m+fp/hard\libg_nano.a(lib_a-writer.o)
                              d:/at32ide/platform/tools/gcc-arm-none-eabi-10.3-2021.10/bin/../lib/gcc/arm-none-eabi/10.3.1/../../../../arm-none-eabi/lib/thumb/v7e-m+fp/hard\libg_nano.a(lib_a-stdio.o) (_write_r)
d:/at32ide/platform/tools/gcc-arm-none-eabi-10.3-2021.10/bin/../lib/gcc/arm-none-eabi/10.3.1/../../../../arm-none-eabi/lib/thumb/v7e-m+fp/hard\libg_nano.a(lib_a-assert.o)
                              d:/at32ide/platform/tools/gcc-arm-none-eabi-10.3-2021.10/bin/../lib/gcc/arm-none-eabi/10.3.1/../../../../arm-none-eabi/lib/thumb/v7e-m+fp/hard\libg_nano.a(lib_a-dtoa.o) (__assert_func)
d:/at32ide/platform/tools/gcc-arm-none-eabi-10.3-2021.10/bin/../lib/gcc/arm-none-eabi/10.3.1/../../../../arm-none-eabi/lib/thumb/v7e-m+fp/hard\libg_nano.a(lib_a-closer.o)
                              d:/at32ide/platform/tools/gcc-arm-none-eabi-10.3-2021.10/bin/../lib/gcc/arm-none-eabi/10.3.1/../../../../arm-none-eabi/lib/thumb/v7e-m+fp/hard\libg_nano.a(lib_a-stdio.o) (_close_r)
d:/at32ide/platform/tools/gcc-arm-none-eabi-10.3-2021.10/bin/../lib/gcc/arm-none-eabi/10.3.1/../../../../arm-none-eabi/lib/thumb/v7e-m+fp/hard\libg_nano.a(lib_a-fprintf.o)
                              d:/at32ide/platform/tools/gcc-arm-none-eabi-10.3-2021.10/bin/../lib/gcc/arm-none-eabi/10.3.1/../../../../arm-none-eabi/lib/thumb/v7e-m+fp/hard\libg_nano.a(lib_a-assert.o) (fiprintf)
d:/at32ide/platform/tools/gcc-arm-none-eabi-10.3-2021.10/bin/../lib/gcc/arm-none-eabi/10.3.1/../../../../arm-none-eabi/lib/thumb/v7e-m+fp/hard\libg_nano.a(lib_a-fstatr.o)
                              d:/at32ide/platform/tools/gcc-arm-none-eabi-10.3-2021.10/bin/../lib/gcc/arm-none-eabi/10.3.1/../../../../arm-none-eabi/lib/thumb/v7e-m+fp/hard\libg_nano.a(lib_a-makebuf.o) (_fstat_r)
d:/at32ide/platform/tools/gcc-arm-none-eabi-10.3-2021.10/bin/../lib/gcc/arm-none-eabi/10.3.1/../../../../arm-none-eabi/lib/thumb/v7e-m+fp/hard\libg_nano.a(lib_a-fvwrite.o)
                              d:/at32ide/platform/tools/gcc-arm-none-eabi-10.3-2021.10/bin/../lib/gcc/arm-none-eabi/10.3.1/../../../../arm-none-eabi/lib/thumb/v7e-m+fp/hard\libg_nano.a(lib_a-nano-vfprintf.o) (__sfvwrite_r)
d:/at32ide/platform/tools/gcc-arm-none-eabi-10.3-2021.10/bin/../lib/gcc/arm-none-eabi/10.3.1/../../../../arm-none-eabi/lib/thumb/v7e-m+fp/hard\libg_nano.a(lib_a-isattyr.o)
                              d:/at32ide/platform/tools/gcc-arm-none-eabi-10.3-2021.10/bin/../lib/gcc/arm-none-eabi/10.3.1/../../../../arm-none-eabi/lib/thumb/v7e-m+fp/hard\libg_nano.a(lib_a-makebuf.o) (_isatty_r)
d:/at32ide/platform/tools/gcc-arm-none-eabi-10.3-2021.10/bin/../lib/gcc/arm-none-eabi/10.3.1/../../../../arm-none-eabi/lib/thumb/v7e-m+fp/hard\libg_nano.a(lib_a-locale.o)
                              d:/at32ide/platform/tools/gcc-arm-none-eabi-10.3-2021.10/bin/../lib/gcc/arm-none-eabi/10.3.1/../../../../arm-none-eabi/lib/thumb/v7e-m+fp/hard\libg_nano.a(lib_a-localeconv.o) (__global_locale)
d:/at32ide/platform/tools/gcc-arm-none-eabi-10.3-2021.10/bin/../lib/gcc/arm-none-eabi/10.3.1/../../../../arm-none-eabi/lib/thumb/v7e-m+fp/hard\libg_nano.a(lib_a-lseekr.o)
                              d:/at32ide/platform/tools/gcc-arm-none-eabi-10.3-2021.10/bin/../lib/gcc/arm-none-eabi/10.3.1/../../../../arm-none-eabi/lib/thumb/v7e-m+fp/hard\libg_nano.a(lib_a-stdio.o) (_lseek_r)
d:/at32ide/platform/tools/gcc-arm-none-eabi-10.3-2021.10/bin/../lib/gcc/arm-none-eabi/10.3.1/../../../../arm-none-eabi/lib/thumb/v7e-m+fp/hard\libg_nano.a(lib_a-mbtowc_r.o)
                              d:/at32ide/platform/tools/gcc-arm-none-eabi-10.3-2021.10/bin/../lib/gcc/arm-none-eabi/10.3.1/../../../../arm-none-eabi/lib/thumb/v7e-m+fp/hard\libg_nano.a(lib_a-locale.o) (__ascii_mbtowc)
d:/at32ide/platform/tools/gcc-arm-none-eabi-10.3-2021.10/bin/../lib/gcc/arm-none-eabi/10.3.1/../../../../arm-none-eabi/lib/thumb/v7e-m+fp/hard\libg_nano.a(lib_a-memmove.o)
                              d:/at32ide/platform/tools/gcc-arm-none-eabi-10.3-2021.10/bin/../lib/gcc/arm-none-eabi/10.3.1/../../../../arm-none-eabi/lib/thumb/v7e-m+fp/hard\libg_nano.a(lib_a-fvwrite.o) (memmove)
d:/at32ide/platform/tools/gcc-arm-none-eabi-10.3-2021.10/bin/../lib/gcc/arm-none-eabi/10.3.1/../../../../arm-none-eabi/lib/thumb/v7e-m+fp/hard\libg_nano.a(lib_a-mlock.o)
                              d:/at32ide/platform/tools/gcc-arm-none-eabi-10.3-2021.10/bin/../lib/gcc/arm-none-eabi/10.3.1/../../../../arm-none-eabi/lib/thumb/v7e-m+fp/hard\libg_nano.a(lib_a-nano-freer.o) (__malloc_lock)
d:/at32ide/platform/tools/gcc-arm-none-eabi-10.3-2021.10/bin/../lib/gcc/arm-none-eabi/10.3.1/../../../../arm-none-eabi/lib/thumb/v7e-m+fp/hard\libg_nano.a(lib_a-nano-reallocr.o)
                              d:/at32ide/platform/tools/gcc-arm-none-eabi-10.3-2021.10/bin/../lib/gcc/arm-none-eabi/10.3.1/../../../../arm-none-eabi/lib/thumb/v7e-m+fp/hard\libg_nano.a(lib_a-fvwrite.o) (_realloc_r)
d:/at32ide/platform/tools/gcc-arm-none-eabi-10.3-2021.10/bin/../lib/gcc/arm-none-eabi/10.3.1/../../../../arm-none-eabi/lib/thumb/v7e-m+fp/hard\libg_nano.a(lib_a-readr.o)
                              d:/at32ide/platform/tools/gcc-arm-none-eabi-10.3-2021.10/bin/../lib/gcc/arm-none-eabi/10.3.1/../../../../arm-none-eabi/lib/thumb/v7e-m+fp/hard\libg_nano.a(lib_a-stdio.o) (_read_r)
d:/at32ide/platform/tools/gcc-arm-none-eabi-10.3-2021.10/bin/../lib/gcc/arm-none-eabi/10.3.1/../../../../arm-none-eabi/lib/thumb/v7e-m+fp/hard\libg_nano.a(lib_a-reent.o)
                              d:/at32ide/platform/tools/gcc-arm-none-eabi-10.3-2021.10/bin/../lib/gcc/arm-none-eabi/10.3.1/../../../../arm-none-eabi/lib/thumb/v7e-m+fp/hard\libg_nano.a(lib_a-sbrkr.o) (errno)
d:/at32ide/platform/tools/gcc-arm-none-eabi-10.3-2021.10/bin/../lib/gcc/arm-none-eabi/10.3.1/../../../../arm-none-eabi/lib/thumb/v7e-m+fp/hard\libg_nano.a(lib_a-strcmp.o)
                              d:/at32ide/platform/tools/gcc-arm-none-eabi-10.3-2021.10/bin/../lib/gcc/arm-none-eabi/10.3.1/../../../../arm-none-eabi/lib/thumb/v7e-m+fp/hard\libg_nano.a(lib_a-locale.o) (strcmp)
d:/at32ide/platform/tools/gcc-arm-none-eabi-10.3-2021.10/bin/../lib/gcc/arm-none-eabi/10.3.1/../../../../arm-none-eabi/lib/thumb/v7e-m+fp/hard\libg_nano.a(lib_a-wctomb_r.o)
                              d:/at32ide/platform/tools/gcc-arm-none-eabi-10.3-2021.10/bin/../lib/gcc/arm-none-eabi/10.3.1/../../../../arm-none-eabi/lib/thumb/v7e-m+fp/hard\libg_nano.a(lib_a-locale.o) (__ascii_wctomb)
d:/at32ide/platform/tools/gcc-arm-none-eabi-10.3-2021.10/bin/../lib/gcc/arm-none-eabi/10.3.1/../../../../arm-none-eabi/lib/thumb/v7e-m+fp/hard\libg_nano.a(lib_a-abort.o)
                              d:/at32ide/platform/tools/gcc-arm-none-eabi-10.3-2021.10/bin/../lib/gcc/arm-none-eabi/10.3.1/../../../../arm-none-eabi/lib/thumb/v7e-m+fp/hard\libg_nano.a(lib_a-assert.o) (abort)
d:/at32ide/platform/tools/gcc-arm-none-eabi-10.3-2021.10/bin/../lib/gcc/arm-none-eabi/10.3.1/../../../../arm-none-eabi/lib/thumb/v7e-m+fp/hard\libg_nano.a(lib_a-ctype_.o)
                              d:/at32ide/platform/tools/gcc-arm-none-eabi-10.3-2021.10/bin/../lib/gcc/arm-none-eabi/10.3.1/../../../../arm-none-eabi/lib/thumb/v7e-m+fp/hard\libg_nano.a(lib_a-locale.o) (_ctype_)
d:/at32ide/platform/tools/gcc-arm-none-eabi-10.3-2021.10/bin/../lib/gcc/arm-none-eabi/10.3.1/../../../../arm-none-eabi/lib/thumb/v7e-m+fp/hard\libg_nano.a(lib_a-nano-msizer.o)
                              d:/at32ide/platform/tools/gcc-arm-none-eabi-10.3-2021.10/bin/../lib/gcc/arm-none-eabi/10.3.1/../../../../arm-none-eabi/lib/thumb/v7e-m+fp/hard\libg_nano.a(lib_a-nano-reallocr.o) (_malloc_usable_size_r)
d:/at32ide/platform/tools/gcc-arm-none-eabi-10.3-2021.10/bin/../lib/gcc/arm-none-eabi/10.3.1/../../../../arm-none-eabi/lib/thumb/v7e-m+fp/hard\libg_nano.a(lib_a-signal.o)
                              d:/at32ide/platform/tools/gcc-arm-none-eabi-10.3-2021.10/bin/../lib/gcc/arm-none-eabi/10.3.1/../../../../arm-none-eabi/lib/thumb/v7e-m+fp/hard\libg_nano.a(lib_a-abort.o) (raise)
d:/at32ide/platform/tools/gcc-arm-none-eabi-10.3-2021.10/bin/../lib/gcc/arm-none-eabi/10.3.1/../../../../arm-none-eabi/lib/thumb/v7e-m+fp/hard\libg_nano.a(lib_a-signalr.o)
                              d:/at32ide/platform/tools/gcc-arm-none-eabi-10.3-2021.10/bin/../lib/gcc/arm-none-eabi/10.3.1/../../../../arm-none-eabi/lib/thumb/v7e-m+fp/hard\libg_nano.a(lib_a-signal.o) (_kill_r)
d:/at32ide/platform/tools/gcc-arm-none-eabi-10.3-2021.10/bin/../lib/gcc/arm-none-eabi/10.3.1/thumb/v7e-m+fp/hard\libgcc.a(_arm_cmpdf2.o)
                              d:/at32ide/platform/tools/gcc-arm-none-eabi-10.3-2021.10/bin/../lib/gcc/arm-none-eabi/10.3.1/../../../../arm-none-eabi/lib/thumb/v7e-m+fp/hard\libg_nano.a(lib_a-nano-vfprintf_float.o) (__aeabi_dcmpeq)
d:/at32ide/platform/tools/gcc-arm-none-eabi-10.3-2021.10/bin/../lib/gcc/arm-none-eabi/10.3.1/thumb/v7e-m+fp/hard\libgcc.a(_arm_unorddf2.o)
                              d:/at32ide/platform/tools/gcc-arm-none-eabi-10.3-2021.10/bin/../lib/gcc/arm-none-eabi/10.3.1/../../../../arm-none-eabi/lib/thumb/v7e-m+fp/hard\libg_nano.a(lib_a-nano-vfprintf_float.o) (__aeabi_dcmpun)
d:/at32ide/platform/tools/gcc-arm-none-eabi-10.3-2021.10/bin/../lib/gcc/arm-none-eabi/10.3.1/thumb/v7e-m+fp/hard\libgcc.a(_arm_fixdfsi.o)
                              d:/at32ide/platform/tools/gcc-arm-none-eabi-10.3-2021.10/bin/../lib/gcc/arm-none-eabi/10.3.1/../../../../arm-none-eabi/lib/thumb/v7e-m+fp/hard\libg_nano.a(lib_a-dtoa.o) (__aeabi_d2iz)
d:/at32ide/platform/tools/gcc-arm-none-eabi-10.3-2021.10/bin/../lib/gcc/arm-none-eabi/10.3.1/../../../../arm-none-eabi/lib/thumb/v7e-m+fp/hard\libnosys.a(close.o)
                              d:/at32ide/platform/tools/gcc-arm-none-eabi-10.3-2021.10/bin/../lib/gcc/arm-none-eabi/10.3.1/../../../../arm-none-eabi/lib/thumb/v7e-m+fp/hard\libg_nano.a(lib_a-closer.o) (_close)
d:/at32ide/platform/tools/gcc-arm-none-eabi-10.3-2021.10/bin/../lib/gcc/arm-none-eabi/10.3.1/../../../../arm-none-eabi/lib/thumb/v7e-m+fp/hard\libnosys.a(fstat.o)
                              d:/at32ide/platform/tools/gcc-arm-none-eabi-10.3-2021.10/bin/../lib/gcc/arm-none-eabi/10.3.1/../../../../arm-none-eabi/lib/thumb/v7e-m+fp/hard\libg_nano.a(lib_a-fstatr.o) (_fstat)
d:/at32ide/platform/tools/gcc-arm-none-eabi-10.3-2021.10/bin/../lib/gcc/arm-none-eabi/10.3.1/../../../../arm-none-eabi/lib/thumb/v7e-m+fp/hard\libnosys.a(getpid.o)
                              d:/at32ide/platform/tools/gcc-arm-none-eabi-10.3-2021.10/bin/../lib/gcc/arm-none-eabi/10.3.1/../../../../arm-none-eabi/lib/thumb/v7e-m+fp/hard\libg_nano.a(lib_a-signalr.o) (_getpid)
d:/at32ide/platform/tools/gcc-arm-none-eabi-10.3-2021.10/bin/../lib/gcc/arm-none-eabi/10.3.1/../../../../arm-none-eabi/lib/thumb/v7e-m+fp/hard\libnosys.a(isatty.o)
                              d:/at32ide/platform/tools/gcc-arm-none-eabi-10.3-2021.10/bin/../lib/gcc/arm-none-eabi/10.3.1/../../../../arm-none-eabi/lib/thumb/v7e-m+fp/hard\libg_nano.a(lib_a-isattyr.o) (_isatty)
d:/at32ide/platform/tools/gcc-arm-none-eabi-10.3-2021.10/bin/../lib/gcc/arm-none-eabi/10.3.1/../../../../arm-none-eabi/lib/thumb/v7e-m+fp/hard\libnosys.a(kill.o)
                              d:/at32ide/platform/tools/gcc-arm-none-eabi-10.3-2021.10/bin/../lib/gcc/arm-none-eabi/10.3.1/../../../../arm-none-eabi/lib/thumb/v7e-m+fp/hard\libg_nano.a(lib_a-signalr.o) (_kill)
d:/at32ide/platform/tools/gcc-arm-none-eabi-10.3-2021.10/bin/../lib/gcc/arm-none-eabi/10.3.1/../../../../arm-none-eabi/lib/thumb/v7e-m+fp/hard\libnosys.a(lseek.o)
                              d:/at32ide/platform/tools/gcc-arm-none-eabi-10.3-2021.10/bin/../lib/gcc/arm-none-eabi/10.3.1/../../../../arm-none-eabi/lib/thumb/v7e-m+fp/hard\libg_nano.a(lib_a-lseekr.o) (_lseek)
d:/at32ide/platform/tools/gcc-arm-none-eabi-10.3-2021.10/bin/../lib/gcc/arm-none-eabi/10.3.1/../../../../arm-none-eabi/lib/thumb/v7e-m+fp/hard\libnosys.a(read.o)
                              d:/at32ide/platform/tools/gcc-arm-none-eabi-10.3-2021.10/bin/../lib/gcc/arm-none-eabi/10.3.1/../../../../arm-none-eabi/lib/thumb/v7e-m+fp/hard\libg_nano.a(lib_a-readr.o) (_read)
d:/at32ide/platform/tools/gcc-arm-none-eabi-10.3-2021.10/bin/../lib/gcc/arm-none-eabi/10.3.1/../../../../arm-none-eabi/lib/thumb/v7e-m+fp/hard\libnosys.a(sbrk.o)
                              d:/at32ide/platform/tools/gcc-arm-none-eabi-10.3-2021.10/bin/../lib/gcc/arm-none-eabi/10.3.1/../../../../arm-none-eabi/lib/thumb/v7e-m+fp/hard\libg_nano.a(lib_a-sbrkr.o) (_sbrk)
d:/at32ide/platform/tools/gcc-arm-none-eabi-10.3-2021.10/bin/../lib/gcc/arm-none-eabi/10.3.1/../../../../arm-none-eabi/lib/thumb/v7e-m+fp/hard\libnosys.a(_exit.o)
                              d:/at32ide/platform/tools/gcc-arm-none-eabi-10.3-2021.10/bin/../lib/gcc/arm-none-eabi/10.3.1/../../../../arm-none-eabi/lib/thumb/v7e-m+fp/hard\libg_nano.a(lib_a-exit.o) (_exit)

Discarded input sections

 .text          0x00000000        0x0 d:/at32ide/platform/tools/gcc-arm-none-eabi-10.3-2021.10/bin/../lib/gcc/arm-none-eabi/10.3.1/thumb/v7e-m+fp/hard/crti.o
 .data          0x00000000        0x0 d:/at32ide/platform/tools/gcc-arm-none-eabi-10.3-2021.10/bin/../lib/gcc/arm-none-eabi/10.3.1/thumb/v7e-m+fp/hard/crti.o
 .bss           0x00000000        0x0 d:/at32ide/platform/tools/gcc-arm-none-eabi-10.3-2021.10/bin/../lib/gcc/arm-none-eabi/10.3.1/thumb/v7e-m+fp/hard/crti.o
 .data          0x00000000        0x4 d:/at32ide/platform/tools/gcc-arm-none-eabi-10.3-2021.10/bin/../lib/gcc/arm-none-eabi/10.3.1/thumb/v7e-m+fp/hard/crtbegin.o
 .rodata        0x00000000       0x24 d:/at32ide/platform/tools/gcc-arm-none-eabi-10.3-2021.10/bin/../lib/gcc/arm-none-eabi/10.3.1/thumb/v7e-m+fp/hard/crtbegin.o
 .text          0x00000000       0x7c d:/at32ide/platform/tools/gcc-arm-none-eabi-10.3-2021.10/bin/../lib/gcc/arm-none-eabi/10.3.1/../../../../arm-none-eabi/lib/thumb/v7e-m+fp/hard/crt0.o
 .data          0x00000000        0x0 d:/at32ide/platform/tools/gcc-arm-none-eabi-10.3-2021.10/bin/../lib/gcc/arm-none-eabi/10.3.1/../../../../arm-none-eabi/lib/thumb/v7e-m+fp/hard/crt0.o
 .bss           0x00000000        0x0 d:/at32ide/platform/tools/gcc-arm-none-eabi-10.3-2021.10/bin/../lib/gcc/arm-none-eabi/10.3.1/../../../../arm-none-eabi/lib/thumb/v7e-m+fp/hard/crt0.o
 .ARM.extab     0x00000000        0x0 d:/at32ide/platform/tools/gcc-arm-none-eabi-10.3-2021.10/bin/../lib/gcc/arm-none-eabi/10.3.1/../../../../arm-none-eabi/lib/thumb/v7e-m+fp/hard/crt0.o
 .ARM.exidx     0x00000000       0x10 d:/at32ide/platform/tools/gcc-arm-none-eabi-10.3-2021.10/bin/../lib/gcc/arm-none-eabi/10.3.1/../../../../arm-none-eabi/lib/thumb/v7e-m+fp/hard/crt0.o
 .ARM.attributes
                0x00000000       0x1c d:/at32ide/platform/tools/gcc-arm-none-eabi-10.3-2021.10/bin/../lib/gcc/arm-none-eabi/10.3.1/../../../../arm-none-eabi/lib/thumb/v7e-m+fp/hard/crt0.o
 .text          0x00000000        0x0 ./user/at32f403a_407_clock.o
 .data          0x00000000        0x0 ./user/at32f403a_407_clock.o
 .bss           0x00000000        0x0 ./user/at32f403a_407_clock.o
 .text          0x00000000        0x0 ./user/at32f403a_407_int.o
 .data          0x00000000        0x0 ./user/at32f403a_407_int.o
 .bss           0x00000000        0x0 ./user/at32f403a_407_int.o
 .text          0x00000000        0x0 ./user/main.o
 .text.button_exint_init
                0x00000000       0x50 ./user/main.o
 .text          0x00000000        0x0 ./firmware/at32f403a_407_acc.o
 .data          0x00000000        0x0 ./firmware/at32f403a_407_acc.o
 .bss           0x00000000        0x0 ./firmware/at32f403a_407_acc.o
 .text.acc_calibration_mode_enable
                0x00000000       0x50 ./firmware/at32f403a_407_acc.o
 .text.acc_step_set
                0x00000000       0x2c ./firmware/at32f403a_407_acc.o
 .text.acc_interrupt_enable
                0x00000000       0x4c ./firmware/at32f403a_407_acc.o
 .text.acc_hicktrim_get
                0x00000000       0x1c ./firmware/at32f403a_407_acc.o
 .text.acc_hickcal_get
                0x00000000       0x18 ./firmware/at32f403a_407_acc.o
 .text.acc_write_c1
                0x00000000       0x20 ./firmware/at32f403a_407_acc.o
 .text.acc_write_c2
                0x00000000       0x20 ./firmware/at32f403a_407_acc.o
 .text.acc_write_c3
                0x00000000       0x20 ./firmware/at32f403a_407_acc.o
 .text.acc_read_c1
                0x00000000       0x18 ./firmware/at32f403a_407_acc.o
 .text.acc_read_c2
                0x00000000       0x18 ./firmware/at32f403a_407_acc.o
 .text.acc_read_c3
                0x00000000       0x18 ./firmware/at32f403a_407_acc.o
 .text.acc_flag_get
                0x00000000       0x38 ./firmware/at32f403a_407_acc.o
 .text.acc_flag_clear
                0x00000000       0x24 ./firmware/at32f403a_407_acc.o
 .debug_info    0x00000000      0x543 ./firmware/at32f403a_407_acc.o
 .debug_abbrev  0x00000000      0x168 ./firmware/at32f403a_407_acc.o
 .debug_aranges
                0x00000000       0x80 ./firmware/at32f403a_407_acc.o
 .debug_ranges  0x00000000       0x70 ./firmware/at32f403a_407_acc.o
 .debug_line    0x00000000      0x30c ./firmware/at32f403a_407_acc.o
 .debug_str     0x00000000      0x38f ./firmware/at32f403a_407_acc.o
 .comment       0x00000000       0x4a ./firmware/at32f403a_407_acc.o
 .debug_frame   0x00000000      0x1f0 ./firmware/at32f403a_407_acc.o
 .ARM.attributes
                0x00000000       0x34 ./firmware/at32f403a_407_acc.o
 .text          0x00000000        0x0 ./firmware/at32f403a_407_adc.o
 .data          0x00000000        0x0 ./firmware/at32f403a_407_adc.o
 .bss           0x00000000        0x0 ./firmware/at32f403a_407_adc.o
 .text.adc_interrupt_enable
                0x00000000       0x42 ./firmware/at32f403a_407_adc.o
 .text.adc_voltage_monitor_enable
                0x00000000       0x40 ./firmware/at32f403a_407_adc.o
 .text.adc_voltage_monitor_threshold_value_set
                0x00000000       0x40 ./firmware/at32f403a_407_adc.o
 .text.adc_voltage_monitor_single_channel_select
                0x00000000       0x2a ./firmware/at32f403a_407_adc.o
 .text.adc_preempt_channel_length_set
                0x00000000       0x2e ./firmware/at32f403a_407_adc.o
 .text.adc_preempt_channel_set
                0x00000000      0x134 ./firmware/at32f403a_407_adc.o
 .text.adc_preempt_conversion_trigger_set
                0x00000000       0x6e ./firmware/at32f403a_407_adc.o
 .text.adc_preempt_offset_value_set
                0x00000000       0x8c ./firmware/at32f403a_407_adc.o
 .text.adc_ordinary_part_count_set
                0x00000000       0x2e ./firmware/at32f403a_407_adc.o
 .text.adc_ordinary_part_mode_enable
                0x00000000       0x2a ./firmware/at32f403a_407_adc.o
 .text.adc_preempt_part_mode_enable
                0x00000000       0x2a ./firmware/at32f403a_407_adc.o
 .text.adc_preempt_auto_mode_enable
                0x00000000       0x2a ./firmware/at32f403a_407_adc.o
 .text.adc_ordinary_software_trigger_status_get
                0x00000000       0x28 ./firmware/at32f403a_407_adc.o
 .text.adc_preempt_software_trigger_enable
                0x00000000       0x2a ./firmware/at32f403a_407_adc.o
 .text.adc_preempt_software_trigger_status_get
                0x00000000       0x28 ./firmware/at32f403a_407_adc.o
 .text.adc_ordinary_conversion_data_get
                0x00000000       0x1a ./firmware/at32f403a_407_adc.o
 .text.adc_combine_ordinary_conversion_data_get
                0x00000000       0x18 ./firmware/at32f403a_407_adc.o
 .text.adc_preempt_conversion_data_get
                0x00000000       0x5c ./firmware/at32f403a_407_adc.o
 .text.adc_flag_get
                0x00000000       0x34 ./firmware/at32f403a_407_adc.o
 .text.adc_flag_clear
                0x00000000       0x1e ./firmware/at32f403a_407_adc.o
 .text          0x00000000        0x0 ./firmware/at32f403a_407_bpr.o
 .data          0x00000000        0x0 ./firmware/at32f403a_407_bpr.o
 .bss           0x00000000        0x0 ./firmware/at32f403a_407_bpr.o
 .text.bpr_reset
                0x00000000       0x14 ./firmware/at32f403a_407_bpr.o
 .text.bpr_flag_get
                0x00000000       0x34 ./firmware/at32f403a_407_bpr.o
 .text.bpr_flag_clear
                0x00000000       0x34 ./firmware/at32f403a_407_bpr.o
 .text.bpr_interrupt_enable
                0x00000000       0x2c ./firmware/at32f403a_407_bpr.o
 .text.bpr_data_read
                0x00000000       0x24 ./firmware/at32f403a_407_bpr.o
 .text.bpr_data_write
                0x00000000       0x2c ./firmware/at32f403a_407_bpr.o
 .text.bpr_rtc_output_select
                0x00000000       0x34 ./firmware/at32f403a_407_bpr.o
 .text.bpr_rtc_clock_calibration_value_set
                0x00000000       0x2c ./firmware/at32f403a_407_bpr.o
 .text.bpr_tamper_pin_enable
                0x00000000       0x2c ./firmware/at32f403a_407_bpr.o
 .text.bpr_tamper_pin_active_level_set
                0x00000000       0x2c ./firmware/at32f403a_407_bpr.o
 .debug_info    0x00000000     0x1427 ./firmware/at32f403a_407_bpr.o
 .debug_abbrev  0x00000000      0x1e5 ./firmware/at32f403a_407_bpr.o
 .debug_aranges
                0x00000000       0x68 ./firmware/at32f403a_407_bpr.o
 .debug_ranges  0x00000000       0x58 ./firmware/at32f403a_407_bpr.o
 .debug_line    0x00000000      0x2a7 ./firmware/at32f403a_407_bpr.o
 .debug_str     0x00000000      0x896 ./firmware/at32f403a_407_bpr.o
 .comment       0x00000000       0x4a ./firmware/at32f403a_407_bpr.o
 .debug_frame   0x00000000      0x194 ./firmware/at32f403a_407_bpr.o
 .ARM.attributes
                0x00000000       0x34 ./firmware/at32f403a_407_bpr.o
 .text          0x00000000        0x0 ./firmware/at32f403a_407_can.o
 .data          0x00000000        0x0 ./firmware/at32f403a_407_can.o
 .bss           0x00000000        0x0 ./firmware/at32f403a_407_can.o
 .text.can_reset
                0x00000000       0x54 ./firmware/at32f403a_407_can.o
 .text.can_baudrate_default_para_init
                0x00000000       0x2c ./firmware/at32f403a_407_can.o
 .text.can_baudrate_set
                0x00000000      0x102 ./firmware/at32f403a_407_can.o
 .text.can_default_para_init
                0x00000000       0x3e ./firmware/at32f403a_407_can.o
 .text.can_base_init
                0x00000000      0x152 ./firmware/at32f403a_407_can.o
 .text.can_filter_default_para_init
                0x00000000       0x4a ./firmware/at32f403a_407_can.o
 .text.can_filter_init
                0x00000000      0x214 ./firmware/at32f403a_407_can.o
 .text.can_debug_transmission_prohibit
                0x00000000       0x2a ./firmware/at32f403a_407_can.o
 .text.can_ttc_mode_enable
                0x00000000       0x6c ./firmware/at32f403a_407_can.o
 .text.can_message_transmit
                0x00000000      0x18c ./firmware/at32f403a_407_can.o
 .text.can_transmit_status_get
                0x00000000       0xc2 ./firmware/at32f403a_407_can.o
 .text.can_transmit_cancel
                0x00000000       0x4a ./firmware/at32f403a_407_can.o
 .text.can_message_receive
                0x00000000      0x176 ./firmware/at32f403a_407_can.o
 .text.can_receive_fifo_release
                0x00000000       0x34 ./firmware/at32f403a_407_can.o
 .text.can_receive_message_pending_get
                0x00000000       0x46 ./firmware/at32f403a_407_can.o
 .text.can_operating_mode_set
                0x00000000      0x16c ./firmware/at32f403a_407_can.o
 .text.can_doze_mode_enter
                0x00000000       0x84 ./firmware/at32f403a_407_can.o
 .text.can_doze_mode_exit
                0x00000000       0x58 ./firmware/at32f403a_407_can.o
 .text.can_error_type_record_get
                0x00000000       0x26 ./firmware/at32f403a_407_can.o
 .text.can_receive_error_counter_get
                0x00000000       0x24 ./firmware/at32f403a_407_can.o
 .text.can_transmit_error_counter_get
                0x00000000       0x24 ./firmware/at32f403a_407_can.o
 .text.can_interrupt_enable
                0x00000000       0x3c ./firmware/at32f403a_407_can.o
 .text.can_flag_get
                0x00000000      0x1cc ./firmware/at32f403a_407_can.o
 .text.can_flag_clear
                0x00000000       0xd8 ./firmware/at32f403a_407_can.o
 .debug_info    0x00000000     0x219c ./firmware/at32f403a_407_can.o
 .debug_abbrev  0x00000000      0x268 ./firmware/at32f403a_407_can.o
 .debug_aranges
                0x00000000       0xd8 ./firmware/at32f403a_407_can.o
 .debug_ranges  0x00000000       0xc8 ./firmware/at32f403a_407_can.o
 .debug_line    0x00000000      0xaa2 ./firmware/at32f403a_407_can.o
 .debug_str     0x00000000     0x174e ./firmware/at32f403a_407_can.o
 .comment       0x00000000       0x4a ./firmware/at32f403a_407_can.o
 .debug_frame   0x00000000      0x3c8 ./firmware/at32f403a_407_can.o
 .ARM.attributes
                0x00000000       0x34 ./firmware/at32f403a_407_can.o
 .text          0x00000000        0x0 ./firmware/at32f403a_407_crc.o
 .data          0x00000000        0x0 ./firmware/at32f403a_407_crc.o
 .bss           0x00000000        0x0 ./firmware/at32f403a_407_crc.o
 .text.crc_data_reset
                0x00000000       0x1c ./firmware/at32f403a_407_crc.o
 .text.crc_one_word_calculate
                0x00000000       0x24 ./firmware/at32f403a_407_crc.o
 .text.crc_block_calculate
                0x00000000       0x44 ./firmware/at32f403a_407_crc.o
 .text.crc_data_get
                0x00000000       0x18 ./firmware/at32f403a_407_crc.o
 .text.crc_common_data_set
                0x00000000       0x28 ./firmware/at32f403a_407_crc.o
 .text.crc_common_data_get
                0x00000000       0x18 ./firmware/at32f403a_407_crc.o
 .text.crc_init_data_set
                0x00000000       0x20 ./firmware/at32f403a_407_crc.o
 .text.crc_reverse_input_data_set
                0x00000000       0x2c ./firmware/at32f403a_407_crc.o
 .text.crc_reverse_output_data_set
                0x00000000       0x2c ./firmware/at32f403a_407_crc.o
 .text.crc_poly_value_set
                0x00000000       0x20 ./firmware/at32f403a_407_crc.o
 .text.crc_poly_value_get
                0x00000000       0x18 ./firmware/at32f403a_407_crc.o
 .text.crc_poly_size_set
                0x00000000       0x2c ./firmware/at32f403a_407_crc.o
 .text.crc_poly_size_get
                0x00000000       0x1c ./firmware/at32f403a_407_crc.o
 .debug_info    0x00000000      0x4bf ./firmware/at32f403a_407_crc.o
 .debug_abbrev  0x00000000      0x17b ./firmware/at32f403a_407_crc.o
 .debug_aranges
                0x00000000       0x80 ./firmware/at32f403a_407_crc.o
 .debug_ranges  0x00000000       0x70 ./firmware/at32f403a_407_crc.o
 .debug_line    0x00000000      0x2cd ./firmware/at32f403a_407_crc.o
 .debug_str     0x00000000      0x454 ./firmware/at32f403a_407_crc.o
 .comment       0x00000000       0x4a ./firmware/at32f403a_407_crc.o
 .debug_frame   0x00000000      0x1f0 ./firmware/at32f403a_407_crc.o
 .ARM.attributes
                0x00000000       0x34 ./firmware/at32f403a_407_crc.o
 .text          0x00000000        0x0 ./firmware/at32f403a_407_crm.o
 .data          0x00000000        0x0 ./firmware/at32f403a_407_crm.o
 .bss           0x00000000        0x0 ./firmware/at32f403a_407_crm.o
 .text.crm_lext_bypass
                0x00000000       0x2c ./firmware/at32f403a_407_crm.o
 .text.crm_hext_bypass
                0x00000000       0x2c ./firmware/at32f403a_407_crm.o
 .text.crm_hick_clock_trimming_set
                0x00000000       0x2c ./firmware/at32f403a_407_crm.o
 .text.crm_hick_clock_calibration_set
                0x00000000       0x3c ./firmware/at32f403a_407_crm.o
 .text.crm_periph_sleep_mode_clock_enable
                0x00000000       0x7c ./firmware/at32f403a_407_crm.o
 .text.crm_flag_clear
                0x00000000       0xe4 ./firmware/at32f403a_407_crm.o
 .text.crm_rtc_clock_select
                0x00000000       0x2c ./firmware/at32f403a_407_crm.o
 .text.crm_rtc_clock_enable
                0x00000000       0x2c ./firmware/at32f403a_407_crm.o
 .text.crm_usb_clock_div_set
                0x00000000       0x44 ./firmware/at32f403a_407_crm.o
 .text.crm_clock_failure_detection_enable
                0x00000000       0x2c ./firmware/at32f403a_407_crm.o
 .text.crm_battery_powered_domain_reset
                0x00000000       0x2c ./firmware/at32f403a_407_crm.o
 .text.crm_clock_out_set
                0x00000000       0x44 ./firmware/at32f403a_407_crm.o
 .text.crm_interrupt_enable
                0x00000000       0x40 ./firmware/at32f403a_407_crm.o
 .text.crm_usb_interrupt_remapping_set
                0x00000000       0x2c ./firmware/at32f403a_407_crm.o
 .text.crm_hick_divider_select
                0x00000000       0x2c ./firmware/at32f403a_407_crm.o
 .text.crm_hick_sclk_frequency_select
                0x00000000       0x30 ./firmware/at32f403a_407_crm.o
 .text.crm_usb_clock_source_select
                0x00000000       0x34 ./firmware/at32f403a_407_crm.o
 .text.crm_clkout_to_tmr10_enable
                0x00000000       0x2c ./firmware/at32f403a_407_crm.o
 .text.crm_clkout_div_set
                0x00000000       0x2c ./firmware/at32f403a_407_crm.o
 .text          0x00000000        0x0 ./firmware/at32f403a_407_dac.o
 .data          0x00000000        0x0 ./firmware/at32f403a_407_dac.o
 .bss           0x00000000        0x0 ./firmware/at32f403a_407_dac.o
 .text.dac_reset
                0x00000000       0x1c ./firmware/at32f403a_407_dac.o
 .text.dac_enable
                0x00000000       0x54 ./firmware/at32f403a_407_dac.o
 .text.dac_output_buffer_enable
                0x00000000       0x64 ./firmware/at32f403a_407_dac.o
 .text.dac_trigger_enable
                0x00000000       0x54 ./firmware/at32f403a_407_dac.o
 .text.dac_trigger_select
                0x00000000       0x54 ./firmware/at32f403a_407_dac.o
 .text.dac_software_trigger_generate
                0x00000000       0x40 ./firmware/at32f403a_407_dac.o
 .text.dac_dual_software_trigger_generate
                0x00000000       0x20 ./firmware/at32f403a_407_dac.o
 .text.dac_wave_generate
                0x00000000       0x54 ./firmware/at32f403a_407_dac.o
 .text.dac_mask_amplitude_select
                0x00000000       0x54 ./firmware/at32f403a_407_dac.o
 .text.dac_dma_enable
                0x00000000       0x54 ./firmware/at32f403a_407_dac.o
 .text.dac_data_output_get
                0x00000000       0x48 ./firmware/at32f403a_407_dac.o
 .text.dac_1_data_set
                0x00000000       0x1e ./firmware/at32f403a_407_dac.o
 .text.dac_2_data_set
                0x00000000       0x1e ./firmware/at32f403a_407_dac.o
 .text.dac_dual_data_set
                0x00000000       0x78 ./firmware/at32f403a_407_dac.o
 .debug_info    0x00000000      0xc7e ./firmware/at32f403a_407_dac.o
 .debug_abbrev  0x00000000      0x1d5 ./firmware/at32f403a_407_dac.o
 .debug_aranges
                0x00000000       0x88 ./firmware/at32f403a_407_dac.o
 .debug_ranges  0x00000000       0x78 ./firmware/at32f403a_407_dac.o
 .debug_line    0x00000000      0x421 ./firmware/at32f403a_407_dac.o
 .debug_str     0x00000000      0xcf1 ./firmware/at32f403a_407_dac.o
 .comment       0x00000000       0x4a ./firmware/at32f403a_407_dac.o
 .debug_frame   0x00000000      0x22c ./firmware/at32f403a_407_dac.o
 .ARM.attributes
                0x00000000       0x34 ./firmware/at32f403a_407_dac.o
 .text          0x00000000        0x0 ./firmware/at32f403a_407_debug.o
 .data          0x00000000        0x0 ./firmware/at32f403a_407_debug.o
 .bss           0x00000000        0x0 ./firmware/at32f403a_407_debug.o
 .text.debug_device_id_get
                0x00000000       0x18 ./firmware/at32f403a_407_debug.o
 .text.debug_periph_mode_set
                0x00000000       0x40 ./firmware/at32f403a_407_debug.o
 .debug_info    0x00000000      0x347 ./firmware/at32f403a_407_debug.o
 .debug_abbrev  0x00000000      0x127 ./firmware/at32f403a_407_debug.o
 .debug_aranges
                0x00000000       0x28 ./firmware/at32f403a_407_debug.o
 .debug_ranges  0x00000000       0x18 ./firmware/at32f403a_407_debug.o
 .debug_line    0x00000000      0x1c6 ./firmware/at32f403a_407_debug.o
 .debug_str     0x00000000      0x35a ./firmware/at32f403a_407_debug.o
 .comment       0x00000000       0x4a ./firmware/at32f403a_407_debug.o
 .debug_frame   0x00000000       0x58 ./firmware/at32f403a_407_debug.o
 .ARM.attributes
                0x00000000       0x34 ./firmware/at32f403a_407_debug.o
 .text          0x00000000        0x0 ./firmware/at32f403a_407_dma.o
 .data          0x00000000        0x0 ./firmware/at32f403a_407_dma.o
 .bss           0x00000000        0x0 ./firmware/at32f403a_407_dma.o
 .text.dma_data_number_set
                0x00000000       0x1e ./firmware/at32f403a_407_dma.o
 .text.dma_data_number_get
                0x00000000       0x1a ./firmware/at32f403a_407_dma.o
 .text.dma_interrupt_enable
                0x00000000       0x3c ./firmware/at32f403a_407_dma.o
 .text.dma_flexible_config
                0x00000000       0xe0 ./firmware/at32f403a_407_dma.o
 .text          0x00000000        0x0 ./firmware/at32f403a_407_emac.o
 .data          0x00000000        0x0 ./firmware/at32f403a_407_emac.o
 .bss           0x00000000        0x0 ./firmware/at32f403a_407_emac.o
 .debug_info    0x00000000       0x64 ./firmware/at32f403a_407_emac.o
 .debug_abbrev  0x00000000       0x26 ./firmware/at32f403a_407_emac.o
 .debug_aranges
                0x00000000       0x18 ./firmware/at32f403a_407_emac.o
 .debug_line    0x00000000       0x1d ./firmware/at32f403a_407_emac.o
 .debug_str     0x00000000      0x16b ./firmware/at32f403a_407_emac.o
 .comment       0x00000000       0x4a ./firmware/at32f403a_407_emac.o
 .ARM.attributes
                0x00000000       0x34 ./firmware/at32f403a_407_emac.o
 .text          0x00000000        0x0 ./firmware/at32f403a_407_exint.o
 .data          0x00000000        0x0 ./firmware/at32f403a_407_exint.o
 .bss           0x00000000        0x0 ./firmware/at32f403a_407_exint.o
 .text.exint_reset
                0x00000000       0x34 ./firmware/at32f403a_407_exint.o
 .text.exint_default_para_init
                0x00000000       0x2c ./firmware/at32f403a_407_exint.o
 .text.exint_init
                0x00000000       0xc8 ./firmware/at32f403a_407_exint.o
 .text.exint_flag_get
                0x00000000       0x3c ./firmware/at32f403a_407_exint.o
 .text.exint_software_interrupt_event_generate
                0x00000000       0x24 ./firmware/at32f403a_407_exint.o
 .text.exint_interrupt_enable
                0x00000000       0x40 ./firmware/at32f403a_407_exint.o
 .text.exint_event_enable
                0x00000000       0x40 ./firmware/at32f403a_407_exint.o
 .text          0x00000000        0x0 ./firmware/at32f403a_407_flash.o
 .data          0x00000000        0x0 ./firmware/at32f403a_407_flash.o
 .bss           0x00000000        0x0 ./firmware/at32f403a_407_flash.o
 .text.flash_flag_get
                0x00000000       0xbc ./firmware/at32f403a_407_flash.o
 .text.flash_flag_clear
                0x00000000       0x64 ./firmware/at32f403a_407_flash.o
 .text.flash_operation_status_get
                0x00000000       0x5c ./firmware/at32f403a_407_flash.o
 .text.flash_bank1_operation_status_get
                0x00000000       0x5c ./firmware/at32f403a_407_flash.o
 .text.flash_bank2_operation_status_get
                0x00000000       0x5c ./firmware/at32f403a_407_flash.o
 .text.flash_spim_operation_status_get
                0x00000000       0x64 ./firmware/at32f403a_407_flash.o
 .text.flash_operation_wait_for
                0x00000000       0x44 ./firmware/at32f403a_407_flash.o
 .text.flash_bank1_operation_wait_for
                0x00000000       0x44 ./firmware/at32f403a_407_flash.o
 .text.flash_bank2_operation_wait_for
                0x00000000       0x44 ./firmware/at32f403a_407_flash.o
 .text.flash_spim_operation_wait_for
                0x00000000       0x44 ./firmware/at32f403a_407_flash.o
 .text.flash_unlock
                0x00000000       0x34 ./firmware/at32f403a_407_flash.o
 .text.flash_bank1_unlock
                0x00000000       0x28 ./firmware/at32f403a_407_flash.o
 .text.flash_bank2_unlock
                0x00000000       0x28 ./firmware/at32f403a_407_flash.o
 .text.flash_spim_unlock
                0x00000000       0x2c ./firmware/at32f403a_407_flash.o
 .text.flash_lock
                0x00000000       0x28 ./firmware/at32f403a_407_flash.o
 .text.flash_bank1_lock
                0x00000000       0x1c ./firmware/at32f403a_407_flash.o
 .text.flash_bank2_lock
                0x00000000       0x1c ./firmware/at32f403a_407_flash.o
 .text.flash_spim_lock
                0x00000000       0x20 ./firmware/at32f403a_407_flash.o
 .text.flash_sector_erase
                0x00000000       0xec ./firmware/at32f403a_407_flash.o
 .text.flash_internal_all_erase
                0x00000000       0x74 ./firmware/at32f403a_407_flash.o
 .text.flash_bank1_erase
                0x00000000       0x44 ./firmware/at32f403a_407_flash.o
 .text.flash_bank2_erase
                0x00000000       0x44 ./firmware/at32f403a_407_flash.o
 .text.flash_spim_all_erase
                0x00000000       0x54 ./firmware/at32f403a_407_flash.o
 .text.flash_user_system_data_erase
                0x00000000       0xb0 ./firmware/at32f403a_407_flash.o
 .text.flash_word_program
                0x00000000       0xcc ./firmware/at32f403a_407_flash.o
 .text.flash_halfword_program
                0x00000000       0xcc ./firmware/at32f403a_407_flash.o
 .text.flash_byte_program
                0x00000000       0x90 ./firmware/at32f403a_407_flash.o
 .text.flash_user_system_data_program
                0x00000000       0x80 ./firmware/at32f403a_407_flash.o
 .rodata        0x00000000        0x8 ./firmware/at32f403a_407_flash.o
 .text.flash_epp_set
                0x00000000      0x104 ./firmware/at32f403a_407_flash.o
 .text.flash_epp_status_get
                0x00000000       0x20 ./firmware/at32f403a_407_flash.o
 .text.flash_fap_enable
                0x00000000       0xa0 ./firmware/at32f403a_407_flash.o
 .text.flash_fap_status_get
                0x00000000       0x1c ./firmware/at32f403a_407_flash.o
 .text.flash_ssb_set
                0x00000000       0x6c ./firmware/at32f403a_407_flash.o
 .text.flash_ssb_status_get
                0x00000000       0x1c ./firmware/at32f403a_407_flash.o
 .text.flash_interrupt_enable
                0x00000000       0xcc ./firmware/at32f403a_407_flash.o
 .text.flash_spim_model_select
                0x00000000       0x24 ./firmware/at32f403a_407_flash.o
 .text.flash_spim_encryption_range_set
                0x00000000       0x20 ./firmware/at32f403a_407_flash.o
 .text.flash_spim_dummy_read
                0x00000000       0x24 ./firmware/at32f403a_407_flash.o
 .text.flash_spim_mass_program
                0x00000000       0xc4 ./firmware/at32f403a_407_flash.o
 .text.flash_slib_enable
                0x00000000       0xbc ./firmware/at32f403a_407_flash.o
 .text.flash_slib_disable
                0x00000000       0x4c ./firmware/at32f403a_407_flash.o
 .text.flash_slib_remaining_count_get
                0x00000000       0x20 ./firmware/at32f403a_407_flash.o
 .text.flash_slib_state_get
                0x00000000       0x28 ./firmware/at32f403a_407_flash.o
 .text.flash_slib_start_sector_get
                0x00000000       0x20 ./firmware/at32f403a_407_flash.o
 .text.flash_slib_datastart_sector_get
                0x00000000       0x20 ./firmware/at32f403a_407_flash.o
 .text.flash_slib_end_sector_get
                0x00000000       0x20 ./firmware/at32f403a_407_flash.o
 .text.flash_crc_calibrate
                0x00000000       0x60 ./firmware/at32f403a_407_flash.o
 .debug_info    0x00000000     0x1871 ./firmware/at32f403a_407_flash.o
 .debug_abbrev  0x00000000      0x2d8 ./firmware/at32f403a_407_flash.o
 .debug_aranges
                0x00000000      0x190 ./firmware/at32f403a_407_flash.o
 .debug_ranges  0x00000000      0x180 ./firmware/at32f403a_407_flash.o
 .debug_line    0x00000000      0xcf8 ./firmware/at32f403a_407_flash.o
 .debug_str     0x00000000      0xbb4 ./firmware/at32f403a_407_flash.o
 .comment       0x00000000       0x4a ./firmware/at32f403a_407_flash.o
 .debug_frame   0x00000000      0x690 ./firmware/at32f403a_407_flash.o
 .ARM.attributes
                0x00000000       0x34 ./firmware/at32f403a_407_flash.o
 .text          0x00000000        0x0 ./firmware/at32f403a_407_gpio.o
 .data          0x00000000        0x0 ./firmware/at32f403a_407_gpio.o
 .bss           0x00000000        0x0 ./firmware/at32f403a_407_gpio.o
 .text.gpio_reset
                0x00000000       0xb8 ./firmware/at32f403a_407_gpio.o
 .text.gpio_iomux_reset
                0x00000000       0x1c ./firmware/at32f403a_407_gpio.o
 .text.gpio_input_data_read
                0x00000000       0x1a ./firmware/at32f403a_407_gpio.o
 .text.gpio_output_data_bit_read
                0x00000000       0x34 ./firmware/at32f403a_407_gpio.o
 .text.gpio_output_data_read
                0x00000000       0x1a ./firmware/at32f403a_407_gpio.o
 .text.gpio_bits_set
                0x00000000       0x1e ./firmware/at32f403a_407_gpio.o
 .text.gpio_bits_reset
                0x00000000       0x1e ./firmware/at32f403a_407_gpio.o
 .text.gpio_bits_write
                0x00000000       0x30 ./firmware/at32f403a_407_gpio.o
 .text.gpio_port_write
                0x00000000       0x1e ./firmware/at32f403a_407_gpio.o
 .text.gpio_pin_wp_config
                0x00000000       0x44 ./firmware/at32f403a_407_gpio.o
 .text.gpio_pins_huge_driven_config
                0x00000000       0x3e ./firmware/at32f403a_407_gpio.o
 .text.gpio_event_output_config
                0x00000000       0x4c ./firmware/at32f403a_407_gpio.o
 .text.gpio_event_output_enable
                0x00000000       0x2c ./firmware/at32f403a_407_gpio.o
 .text.gpio_pin_remap_config
                0x00000000       0x98 ./firmware/at32f403a_407_gpio.o
 .text.gpio_exint_line_config
                0x00000000       0xf8 ./firmware/at32f403a_407_gpio.o
 .text          0x00000000        0x0 ./firmware/at32f403a_407_i2c.o
 .data          0x00000000        0x0 ./firmware/at32f403a_407_i2c.o
 .bss           0x00000000        0x0 ./firmware/at32f403a_407_i2c.o
 .text.i2c_reset
                0x00000000       0x74 ./firmware/at32f403a_407_i2c.o
 .text.i2c_software_reset
                0x00000000       0x2a ./firmware/at32f403a_407_i2c.o
 .text.i2c_init
                0x00000000      0x184 ./firmware/at32f403a_407_i2c.o
 .text.i2c_own_address1_set
                0x00000000       0x40 ./firmware/at32f403a_407_i2c.o
 .text.i2c_own_address2_set
                0x00000000       0x2e ./firmware/at32f403a_407_i2c.o
 .text.i2c_own_address2_enable
                0x00000000       0x2a ./firmware/at32f403a_407_i2c.o
 .text.i2c_smbus_enable
                0x00000000       0x2a ./firmware/at32f403a_407_i2c.o
 .text.i2c_enable
                0x00000000       0x2a ./firmware/at32f403a_407_i2c.o
 .text.i2c_fast_mode_duty_set
                0x00000000       0x2a ./firmware/at32f403a_407_i2c.o
 .text.i2c_clock_stretch_enable
                0x00000000       0x2e ./firmware/at32f403a_407_i2c.o
 .text.i2c_ack_enable
                0x00000000       0x2a ./firmware/at32f403a_407_i2c.o
 .text.i2c_master_receive_ack_set
                0x00000000       0x2a ./firmware/at32f403a_407_i2c.o
 .text.i2c_pec_position_set
                0x00000000       0x2a ./firmware/at32f403a_407_i2c.o
 .text.i2c_general_call_enable
                0x00000000       0x2a ./firmware/at32f403a_407_i2c.o
 .text.i2c_arp_mode_enable
                0x00000000       0x2a ./firmware/at32f403a_407_i2c.o
 .text.i2c_smbus_mode_set
                0x00000000       0x2a ./firmware/at32f403a_407_i2c.o
 .text.i2c_smbus_alert_set
                0x00000000       0x2a ./firmware/at32f403a_407_i2c.o
 .text.i2c_pec_transmit_enable
                0x00000000       0x2a ./firmware/at32f403a_407_i2c.o
 .text.i2c_pec_calculate_enable
                0x00000000       0x2a ./firmware/at32f403a_407_i2c.o
 .text.i2c_pec_value_get
                0x00000000       0x1e ./firmware/at32f403a_407_i2c.o
 .text.i2c_dma_end_transfer_set
                0x00000000       0x2a ./firmware/at32f403a_407_i2c.o
 .text.i2c_dma_enable
                0x00000000       0x2a ./firmware/at32f403a_407_i2c.o
 .text.i2c_interrupt_enable
                0x00000000       0x40 ./firmware/at32f403a_407_i2c.o
 .text.i2c_start_generate
                0x00000000       0x1e ./firmware/at32f403a_407_i2c.o
 .text.i2c_stop_generate
                0x00000000       0x1e ./firmware/at32f403a_407_i2c.o
 .text.i2c_7bit_address_send
                0x00000000       0x3c ./firmware/at32f403a_407_i2c.o
 .text.i2c_data_send
                0x00000000       0x1e ./firmware/at32f403a_407_i2c.o
 .text.i2c_data_receive
                0x00000000       0x1a ./firmware/at32f403a_407_i2c.o
 .text.i2c_flag_get
                0x00000000       0x56 ./firmware/at32f403a_407_i2c.o
 .text.i2c_flag_clear
                0x00000000       0x54 ./firmware/at32f403a_407_i2c.o
 .debug_info    0x00000000     0x113d ./firmware/at32f403a_407_i2c.o
 .debug_abbrev  0x00000000      0x253 ./firmware/at32f403a_407_i2c.o
 .debug_aranges
                0x00000000      0x108 ./firmware/at32f403a_407_i2c.o
 .debug_ranges  0x00000000       0xf8 ./firmware/at32f403a_407_i2c.o
 .debug_line    0x00000000      0x57d ./firmware/at32f403a_407_i2c.o
 .debug_str     0x00000000      0xcab ./firmware/at32f403a_407_i2c.o
 .comment       0x00000000       0x4a ./firmware/at32f403a_407_i2c.o
 .debug_frame   0x00000000      0x4b8 ./firmware/at32f403a_407_i2c.o
 .ARM.attributes
                0x00000000       0x34 ./firmware/at32f403a_407_i2c.o
 .text          0x00000000        0x0 ./firmware/at32f403a_407_misc.o
 .data          0x00000000        0x0 ./firmware/at32f403a_407_misc.o
 .bss           0x00000000        0x0 ./firmware/at32f403a_407_misc.o
 .text.__NVIC_GetPriorityGrouping
                0x00000000       0x1c ./firmware/at32f403a_407_misc.o
 .text.__NVIC_EnableIRQ
                0x00000000       0x3c ./firmware/at32f403a_407_misc.o
 .text.__NVIC_DisableIRQ
                0x00000000       0x48 ./firmware/at32f403a_407_misc.o
 .text.__NVIC_SetPriority
                0x00000000       0x54 ./firmware/at32f403a_407_misc.o
 .text.NVIC_EncodePriority
                0x00000000       0x66 ./firmware/at32f403a_407_misc.o
 .text.__NVIC_SystemReset
                0x00000000       0x2c ./firmware/at32f403a_407_misc.o
 .text.nvic_system_reset
                0x00000000        0x8 ./firmware/at32f403a_407_misc.o
 .text.nvic_irq_enable
                0x00000000       0x42 ./firmware/at32f403a_407_misc.o
 .text.nvic_irq_disable
                0x00000000       0x1c ./firmware/at32f403a_407_misc.o
 .text.nvic_vector_table_set
                0x00000000       0x2c ./firmware/at32f403a_407_misc.o
 .text.nvic_lowpower_mode_config
                0x00000000       0x44 ./firmware/at32f403a_407_misc.o
 .text          0x00000000        0x0 ./firmware/at32f403a_407_pwc.o
 .data          0x00000000        0x0 ./firmware/at32f403a_407_pwc.o
 .bss           0x00000000        0x0 ./firmware/at32f403a_407_pwc.o
 .text.pwc_reset
                0x00000000       0x1c ./firmware/at32f403a_407_pwc.o
 .text.pwc_battery_powered_domain_access
                0x00000000       0x2c ./firmware/at32f403a_407_pwc.o
 .text.pwc_pvm_level_select
                0x00000000       0x2c ./firmware/at32f403a_407_pwc.o
 .text.pwc_power_voltage_monitor_enable
                0x00000000       0x2c ./firmware/at32f403a_407_pwc.o
 .text.pwc_wakeup_pin_enable
                0x00000000       0x40 ./firmware/at32f403a_407_pwc.o
 .text.pwc_flag_clear
                0x00000000       0x40 ./firmware/at32f403a_407_pwc.o
 .text.pwc_flag_get
                0x00000000       0x34 ./firmware/at32f403a_407_pwc.o
 .text.pwc_sleep_mode_enter
                0x00000000       0x3c ./firmware/at32f403a_407_pwc.o
 .text.pwc_deep_sleep_mode_enter
                0x00000000       0x48 ./firmware/at32f403a_407_pwc.o
 .text.pwc_voltage_regulate_set
                0x00000000       0x2c ./firmware/at32f403a_407_pwc.o
 .text.pwc_standby_mode_enter
                0x00000000       0x30 ./firmware/at32f403a_407_pwc.o
 .debug_info    0x00000000      0x814 ./firmware/at32f403a_407_pwc.o
 .debug_abbrev  0x00000000      0x1ce ./firmware/at32f403a_407_pwc.o
 .debug_aranges
                0x00000000       0x70 ./firmware/at32f403a_407_pwc.o
 .debug_ranges  0x00000000       0x60 ./firmware/at32f403a_407_pwc.o
 .debug_line    0x00000000      0x34a ./firmware/at32f403a_407_pwc.o
 .debug_str     0x00000000      0x96c ./firmware/at32f403a_407_pwc.o
 .comment       0x00000000       0x4a ./firmware/at32f403a_407_pwc.o
 .debug_frame   0x00000000      0x1ac ./firmware/at32f403a_407_pwc.o
 .ARM.attributes
                0x00000000       0x34 ./firmware/at32f403a_407_pwc.o
 .text          0x00000000        0x0 ./firmware/at32f403a_407_rtc.o
 .data          0x00000000        0x0 ./firmware/at32f403a_407_rtc.o
 .bss           0x00000000        0x0 ./firmware/at32f403a_407_rtc.o
 .text.rtc_counter_set
                0x00000000       0x44 ./firmware/at32f403a_407_rtc.o
 .text.rtc_counter_get
                0x00000000       0x30 ./firmware/at32f403a_407_rtc.o
 .text.rtc_divider_set
                0x00000000       0x48 ./firmware/at32f403a_407_rtc.o
 .text.rtc_divider_get
                0x00000000       0x30 ./firmware/at32f403a_407_rtc.o
 .text.rtc_alarm_set
                0x00000000       0x44 ./firmware/at32f403a_407_rtc.o
 .text.rtc_interrupt_enable
                0x00000000       0x44 ./firmware/at32f403a_407_rtc.o
 .text.rtc_flag_get
                0x00000000       0x38 ./firmware/at32f403a_407_rtc.o
 .text.rtc_flag_clear
                0x00000000       0x38 ./firmware/at32f403a_407_rtc.o
 .text.rtc_wait_config_finish
                0x00000000       0x24 ./firmware/at32f403a_407_rtc.o
 .text.rtc_wait_update_finish
                0x00000000       0x24 ./firmware/at32f403a_407_rtc.o
 .debug_info    0x00000000      0x625 ./firmware/at32f403a_407_rtc.o
 .debug_abbrev  0x00000000      0x188 ./firmware/at32f403a_407_rtc.o
 .debug_aranges
                0x00000000       0x68 ./firmware/at32f403a_407_rtc.o
 .debug_ranges  0x00000000       0x58 ./firmware/at32f403a_407_rtc.o
 .debug_line    0x00000000      0x34b ./firmware/at32f403a_407_rtc.o
 .debug_str     0x00000000      0x37d ./firmware/at32f403a_407_rtc.o
 .comment       0x00000000       0x4a ./firmware/at32f403a_407_rtc.o
 .debug_frame   0x00000000      0x190 ./firmware/at32f403a_407_rtc.o
 .ARM.attributes
                0x00000000       0x34 ./firmware/at32f403a_407_rtc.o
 .text          0x00000000        0x0 ./firmware/at32f403a_407_sdio.o
 .data          0x00000000        0x0 ./firmware/at32f403a_407_sdio.o
 .bss           0x00000000        0x0 ./firmware/at32f403a_407_sdio.o
 .text.sdio_reset
                0x00000000       0x50 ./firmware/at32f403a_407_sdio.o
 .text.sdio_power_set
                0x00000000       0x2a ./firmware/at32f403a_407_sdio.o
 .text.sdio_power_status_get
                0x00000000       0x1e ./firmware/at32f403a_407_sdio.o
 .text.sdio_clock_config
                0x00000000       0x50 ./firmware/at32f403a_407_sdio.o
 .text.sdio_bus_width_config
                0x00000000       0x2a ./firmware/at32f403a_407_sdio.o
 .text.sdio_clock_bypass
                0x00000000       0x2a ./firmware/at32f403a_407_sdio.o
 .text.sdio_power_saving_mode_enable
                0x00000000       0x2a ./firmware/at32f403a_407_sdio.o
 .text.sdio_flow_control_enable
                0x00000000       0x2a ./firmware/at32f403a_407_sdio.o
 .text.sdio_clock_enable
                0x00000000       0x2a ./firmware/at32f403a_407_sdio.o
 .text.sdio_dma_enable
                0x00000000       0x2a ./firmware/at32f403a_407_sdio.o
 .text.sdio_interrupt_enable
                0x00000000       0x3c ./firmware/at32f403a_407_sdio.o
 .text.sdio_flag_get
                0x00000000       0x34 ./firmware/at32f403a_407_sdio.o
 .text.sdio_flag_clear
                0x00000000       0x1c ./firmware/at32f403a_407_sdio.o
 .text.sdio_command_config
                0x00000000       0x7a ./firmware/at32f403a_407_sdio.o
 .text.sdio_command_state_machine_enable
                0x00000000       0x2a ./firmware/at32f403a_407_sdio.o
 .text.sdio_command_response_get
                0x00000000       0x1e ./firmware/at32f403a_407_sdio.o
 .text.sdio_response_get
                0x00000000       0x5c ./firmware/at32f403a_407_sdio.o
 .text.sdio_data_config
                0x00000000       0x76 ./firmware/at32f403a_407_sdio.o
 .text.sdio_data_state_machine_enable
                0x00000000       0x2a ./firmware/at32f403a_407_sdio.o
 .text.sdio_data_counter_get
                0x00000000       0x18 ./firmware/at32f403a_407_sdio.o
 .text.sdio_data_read
                0x00000000       0x1a ./firmware/at32f403a_407_sdio.o
 .text.sdio_buffer_counter_get
                0x00000000       0x18 ./firmware/at32f403a_407_sdio.o
 .text.sdio_data_write
                0x00000000       0x1e ./firmware/at32f403a_407_sdio.o
 .text.sdio_read_wait_mode_set
                0x00000000       0x2a ./firmware/at32f403a_407_sdio.o
 .text.sdio_read_wait_start
                0x00000000       0x2a ./firmware/at32f403a_407_sdio.o
 .text.sdio_read_wait_stop
                0x00000000       0x2a ./firmware/at32f403a_407_sdio.o
 .text.sdio_io_function_enable
                0x00000000       0x2a ./firmware/at32f403a_407_sdio.o
 .text.sdio_io_suspend_command_set
                0x00000000       0x2a ./firmware/at32f403a_407_sdio.o
 .debug_info    0x00000000     0x14c6 ./firmware/at32f403a_407_sdio.o
 .debug_abbrev  0x00000000      0x216 ./firmware/at32f403a_407_sdio.o
 .debug_aranges
                0x00000000       0xf8 ./firmware/at32f403a_407_sdio.o
 .debug_ranges  0x00000000       0xe8 ./firmware/at32f403a_407_sdio.o
 .debug_line    0x00000000      0x4c4 ./firmware/at32f403a_407_sdio.o
 .debug_str     0x00000000      0xd05 ./firmware/at32f403a_407_sdio.o
 .comment       0x00000000       0x4a ./firmware/at32f403a_407_sdio.o
 .debug_frame   0x00000000      0x470 ./firmware/at32f403a_407_sdio.o
 .ARM.attributes
                0x00000000       0x34 ./firmware/at32f403a_407_sdio.o
 .text          0x00000000        0x0 ./firmware/at32f403a_407_spi.o
 .data          0x00000000        0x0 ./firmware/at32f403a_407_spi.o
 .bss           0x00000000        0x0 ./firmware/at32f403a_407_spi.o
 .text.spi_i2s_reset
                0x00000000       0x94 ./firmware/at32f403a_407_spi.o
 .text.spi_default_para_init
                0x00000000       0x44 ./firmware/at32f403a_407_spi.o
 .text.spi_init
                0x00000000      0x1a2 ./firmware/at32f403a_407_spi.o
 .text.spi_crc_next_transmit
                0x00000000       0x1e ./firmware/at32f403a_407_spi.o
 .text.spi_crc_polynomial_set
                0x00000000       0x24 ./firmware/at32f403a_407_spi.o
 .text.spi_crc_polynomial_get
                0x00000000       0x1a ./firmware/at32f403a_407_spi.o
 .text.spi_crc_enable
                0x00000000       0x2a ./firmware/at32f403a_407_spi.o
 .text.spi_crc_value_get
                0x00000000       0x2c ./firmware/at32f403a_407_spi.o
 .text.spi_hardware_cs_output_enable
                0x00000000       0x2a ./firmware/at32f403a_407_spi.o
 .text.spi_software_cs_internal_level_set
                0x00000000       0x2a ./firmware/at32f403a_407_spi.o
 .text.spi_frame_bit_num_set
                0x00000000       0x2a ./firmware/at32f403a_407_spi.o
 .text.spi_half_duplex_direction_set
                0x00000000       0x2a ./firmware/at32f403a_407_spi.o
 .text.spi_enable
                0x00000000       0x2a ./firmware/at32f403a_407_spi.o
 .text.i2s_default_para_init
                0x00000000       0x38 ./firmware/at32f403a_407_spi.o
 .text.i2s_init
                0x00000000      0x2fc ./firmware/at32f403a_407_spi.o
 .text.i2s_enable
                0x00000000       0x2a ./firmware/at32f403a_407_spi.o
 .text.spi_i2s_interrupt_enable
                0x00000000       0x3c ./firmware/at32f403a_407_spi.o
 .text.spi_i2s_dma_transmitter_enable
                0x00000000       0x2a ./firmware/at32f403a_407_spi.o
 .text.spi_i2s_dma_receiver_enable
                0x00000000       0x2a ./firmware/at32f403a_407_spi.o
 .text.spi_i2s_data_transmit
                0x00000000       0x1e ./firmware/at32f403a_407_spi.o
 .text.spi_i2s_data_receive
                0x00000000       0x1a ./firmware/at32f403a_407_spi.o
 .text.spi_i2s_flag_get
                0x00000000       0x32 ./firmware/at32f403a_407_spi.o
 .text.spi_i2s_flag_clear
                0x00000000       0x60 ./firmware/at32f403a_407_spi.o
 .debug_info    0x00000000     0x11dc ./firmware/at32f403a_407_spi.o
 .debug_abbrev  0x00000000      0x212 ./firmware/at32f403a_407_spi.o
 .debug_aranges
                0x00000000       0xd0 ./firmware/at32f403a_407_spi.o
 .debug_ranges  0x00000000       0xc0 ./firmware/at32f403a_407_spi.o
 .debug_line    0x00000000      0x63c ./firmware/at32f403a_407_spi.o
 .debug_str     0x00000000     0x11ca ./firmware/at32f403a_407_spi.o
 .comment       0x00000000       0x4a ./firmware/at32f403a_407_spi.o
 .debug_frame   0x00000000      0x3a4 ./firmware/at32f403a_407_spi.o
 .ARM.attributes
                0x00000000       0x34 ./firmware/at32f403a_407_spi.o
 .text          0x00000000        0x0 ./firmware/at32f403a_407_tmr.o
 .data          0x00000000        0x0 ./firmware/at32f403a_407_tmr.o
 .bss           0x00000000        0x0 ./firmware/at32f403a_407_tmr.o
 .text.tmr_reset
                0x00000000      0x1e8 ./firmware/at32f403a_407_tmr.o
 .text.tmr_counter_enable
                0x00000000       0x2a ./firmware/at32f403a_407_tmr.o
 .text.tmr_output_default_para_init
                0x00000000       0x3e ./firmware/at32f403a_407_tmr.o
 .text.tmr_input_default_para_init
                0x00000000       0x2c ./firmware/at32f403a_407_tmr.o
 .text.tmr_brkdt_default_para_init
                0x00000000       0x3e ./firmware/at32f403a_407_tmr.o
 .text.tmr_base_init
                0x00000000       0x2e ./firmware/at32f403a_407_tmr.o
 .text.tmr_clock_source_div_set
                0x00000000       0x2a ./firmware/at32f403a_407_tmr.o
 .text.tmr_cnt_dir_set
                0x00000000       0x2a ./firmware/at32f403a_407_tmr.o
 .text.tmr_repetition_counter_set
                0x00000000       0x24 ./firmware/at32f403a_407_tmr.o
 .text.tmr_counter_value_set
                0x00000000       0x1c ./firmware/at32f403a_407_tmr.o
 .text.tmr_counter_value_get
                0x00000000       0x18 ./firmware/at32f403a_407_tmr.o
 .text.tmr_div_value_set
                0x00000000       0x1c ./firmware/at32f403a_407_tmr.o
 .text.tmr_div_value_get
                0x00000000       0x18 ./firmware/at32f403a_407_tmr.o
 .text.tmr_output_channel_config
                0x00000000      0x204 ./firmware/at32f403a_407_tmr.o
 .text.tmr_output_channel_mode_select
                0x00000000       0x9c ./firmware/at32f403a_407_tmr.o
 .text.tmr_period_value_set
                0x00000000       0x1c ./firmware/at32f403a_407_tmr.o
 .text.tmr_period_value_get
                0x00000000       0x18 ./firmware/at32f403a_407_tmr.o
 .text.tmr_channel_value_set
                0x00000000       0x6c ./firmware/at32f403a_407_tmr.o
 .text.tmr_channel_value_get
                0x00000000       0x6c ./firmware/at32f403a_407_tmr.o
 .text.tmr_period_buffer_enable
                0x00000000       0x2a ./firmware/at32f403a_407_tmr.o
 .text.tmr_output_channel_buffer_enable
                0x00000000       0x9c ./firmware/at32f403a_407_tmr.o
 .text.tmr_output_channel_immediately_set
                0x00000000       0x9c ./firmware/at32f403a_407_tmr.o
 .text.tmr_output_channel_switch_set
                0x00000000       0x9c ./firmware/at32f403a_407_tmr.o
 .text.tmr_one_cycle_mode_enable
                0x00000000       0x2a ./firmware/at32f403a_407_tmr.o
 .text.tmr_32_bit_function_enable
                0x00000000       0x40 ./firmware/at32f403a_407_tmr.o
 .text.tmr_overflow_request_source_set
                0x00000000       0x2a ./firmware/at32f403a_407_tmr.o
 .text.tmr_overflow_event_disable
                0x00000000       0x2a ./firmware/at32f403a_407_tmr.o
 .text.tmr_input_channel_init
                0x00000000      0x224 ./firmware/at32f403a_407_tmr.o
 .text.tmr_channel_enable
                0x00000000       0xd8 ./firmware/at32f403a_407_tmr.o
 .text.tmr_input_channel_filter_set
                0x00000000       0x9c ./firmware/at32f403a_407_tmr.o
 .text.tmr_pwm_input_config
                0x00000000      0x1ec ./firmware/at32f403a_407_tmr.o
 .text.tmr_channel1_input_select
                0x00000000       0x2a ./firmware/at32f403a_407_tmr.o
 .text.tmr_input_channel_divider_set
                0x00000000       0x9c ./firmware/at32f403a_407_tmr.o
 .text.tmr_primary_mode_select
                0x00000000       0x2a ./firmware/at32f403a_407_tmr.o
 .text.tmr_sub_mode_select
                0x00000000       0x2a ./firmware/at32f403a_407_tmr.o
 .text.tmr_channel_dma_select
                0x00000000       0x2a ./firmware/at32f403a_407_tmr.o
 .text.tmr_hall_select
                0x00000000       0x2a ./firmware/at32f403a_407_tmr.o
 .text.tmr_channel_buffer_enable
                0x00000000       0x2a ./firmware/at32f403a_407_tmr.o
 .text.tmr_trigger_input_select
                0x00000000       0x2a ./firmware/at32f403a_407_tmr.o
 .text.tmr_sub_sync_mode_set
                0x00000000       0x2a ./firmware/at32f403a_407_tmr.o
 .text.tmr_dma_request_enable
                0x00000000       0x44 ./firmware/at32f403a_407_tmr.o
 .text.tmr_interrupt_enable
                0x00000000       0x42 ./firmware/at32f403a_407_tmr.o
 .text.tmr_flag_get
                0x00000000       0x32 ./firmware/at32f403a_407_tmr.o
 .text.tmr_flag_clear
                0x00000000       0x1e ./firmware/at32f403a_407_tmr.o
 .text.tmr_event_sw_trigger
                0x00000000       0x24 ./firmware/at32f403a_407_tmr.o
 .text.tmr_output_enable
                0x00000000       0x2a ./firmware/at32f403a_407_tmr.o
 .text.tmr_internal_clock_set
                0x00000000       0x1e ./firmware/at32f403a_407_tmr.o
 .text.tmr_output_channel_polarity_set
                0x00000000       0xd8 ./firmware/at32f403a_407_tmr.o
 .text.tmr_external_clock_config
                0x00000000       0x5c ./firmware/at32f403a_407_tmr.o
 .text.tmr_external_clock_mode1_config
                0x00000000       0x42 ./firmware/at32f403a_407_tmr.o
 .text.tmr_external_clock_mode2_config
                0x00000000       0x38 ./firmware/at32f403a_407_tmr.o
 .text.tmr_encoder_mode_config
                0x00000000       0xa0 ./firmware/at32f403a_407_tmr.o
 .text.tmr_force_output_set
                0x00000000       0x9c ./firmware/at32f403a_407_tmr.o
 .text.tmr_dma_control_config
                0x00000000       0x40 ./firmware/at32f403a_407_tmr.o
 .text.tmr_brkdt_config
                0x00000000       0x9c ./firmware/at32f403a_407_tmr.o
 .debug_info    0x00000000     0x267e ./firmware/at32f403a_407_tmr.o
 .debug_abbrev  0x00000000      0x1e5 ./firmware/at32f403a_407_tmr.o
 .debug_aranges
                0x00000000      0x1d0 ./firmware/at32f403a_407_tmr.o
 .debug_ranges  0x00000000      0x1c0 ./firmware/at32f403a_407_tmr.o
 .debug_line    0x00000000      0xbc0 ./firmware/at32f403a_407_tmr.o
 .debug_str     0x00000000     0x1ffd ./firmware/at32f403a_407_tmr.o
 .comment       0x00000000       0x4a ./firmware/at32f403a_407_tmr.o
 .debug_frame   0x00000000      0x89c ./firmware/at32f403a_407_tmr.o
 .ARM.attributes
                0x00000000       0x34 ./firmware/at32f403a_407_tmr.o
 .text          0x00000000        0x0 ./firmware/at32f403a_407_usart.o
 .data          0x00000000        0x0 ./firmware/at32f403a_407_usart.o
 .bss           0x00000000        0x0 ./firmware/at32f403a_407_usart.o
 .text.usart_reset
                0x00000000      0x120 ./firmware/at32f403a_407_usart.o
 .text.usart_parity_selection_config
                0x00000000       0x6a ./firmware/at32f403a_407_usart.o
 .text.usart_receiver_enable
                0x00000000       0x2a ./firmware/at32f403a_407_usart.o
 .text.usart_clock_config
                0x00000000       0x5c ./firmware/at32f403a_407_usart.o
 .text.usart_clock_enable
                0x00000000       0x2a ./firmware/at32f403a_407_usart.o
 .text.usart_interrupt_enable
                0x00000000       0x68 ./firmware/at32f403a_407_usart.o
 .text.usart_dma_transmitter_enable
                0x00000000       0x2a ./firmware/at32f403a_407_usart.o
 .text.usart_dma_receiver_enable
                0x00000000       0x2a ./firmware/at32f403a_407_usart.o
 .text.usart_wakeup_id_set
                0x00000000       0x2a ./firmware/at32f403a_407_usart.o
 .text.usart_wakeup_mode_set
                0x00000000       0x2a ./firmware/at32f403a_407_usart.o
 .text.usart_receiver_mute_enable
                0x00000000       0x2a ./firmware/at32f403a_407_usart.o
 .text.usart_break_bit_num_set
                0x00000000       0x2a ./firmware/at32f403a_407_usart.o
 .text.usart_lin_mode_enable
                0x00000000       0x2a ./firmware/at32f403a_407_usart.o
 .text.usart_data_receive
                0x00000000       0x1a ./firmware/at32f403a_407_usart.o
 .text.usart_break_send
                0x00000000       0x1e ./firmware/at32f403a_407_usart.o
 .text.usart_smartcard_guard_time_set
                0x00000000       0x24 ./firmware/at32f403a_407_usart.o
 .text.usart_irda_smartcard_division_set
                0x00000000       0x24 ./firmware/at32f403a_407_usart.o
 .text.usart_smartcard_mode_enable
                0x00000000       0x2a ./firmware/at32f403a_407_usart.o
 .text.usart_smartcard_nack_set
                0x00000000       0x2a ./firmware/at32f403a_407_usart.o
 .text.usart_single_line_halfduplex_select
                0x00000000       0x2a ./firmware/at32f403a_407_usart.o
 .text.usart_irda_mode_enable
                0x00000000       0x2a ./firmware/at32f403a_407_usart.o
 .text.usart_irda_low_power_enable
                0x00000000       0x2a ./firmware/at32f403a_407_usart.o
 .text.usart_hardware_flow_control_set
                0x00000000       0x86 ./firmware/at32f403a_407_usart.o
 .text.usart_flag_clear
                0x00000000       0x32 ./firmware/at32f403a_407_usart.o
 .text          0x00000000        0x0 ./firmware/at32f403a_407_usb.o
 .data          0x00000000        0x6 ./firmware/at32f403a_407_usb.o
 .bss           0x00000000        0x0 ./firmware/at32f403a_407_usb.o
 .text.usb_dev_init
                0x00000000       0x38 ./firmware/at32f403a_407_usb.o
 .text.usb_connect
                0x00000000       0x28 ./firmware/at32f403a_407_usb.o
 .text.usb_disconnect
                0x00000000       0x28 ./firmware/at32f403a_407_usb.o
 .text.usb_usbbufs_enable
                0x00000000       0x50 ./firmware/at32f403a_407_usb.o
 .text.usb_ept_open
                0x00000000      0x5c8 ./firmware/at32f403a_407_usb.o
 .text.usb_ept_close
                0x00000000      0x23c ./firmware/at32f403a_407_usb.o
 .text.usb_write_packet
                0x00000000       0x6c ./firmware/at32f403a_407_usb.o
 .text.usb_read_packet
                0x00000000       0x6c ./firmware/at32f403a_407_usb.o
 .text.usb_interrupt_enable
                0x00000000       0x3e ./firmware/at32f403a_407_usb.o
 .text.usb_set_address
                0x00000000       0x34 ./firmware/at32f403a_407_usb.o
 .text.usb_ept_stall
                0x00000000       0x80 ./firmware/at32f403a_407_usb.o
 .text.usb_enter_suspend
                0x00000000       0x28 ./firmware/at32f403a_407_usb.o
 .text.usb_exit_suspend
                0x00000000       0x28 ./firmware/at32f403a_407_usb.o
 .text.usb_remote_wkup_set
                0x00000000       0x1e ./firmware/at32f403a_407_usb.o
 .text.usb_remote_wkup_clear
                0x00000000       0x1e ./firmware/at32f403a_407_usb.o
 .text.usb_buffer_malloc
                0x00000000       0x30 ./firmware/at32f403a_407_usb.o
 .text.usb_buffer_free
                0x00000000       0x18 ./firmware/at32f403a_407_usb.o
 .text.usb_flag_get
                0x00000000       0x34 ./firmware/at32f403a_407_usb.o
 .text.usb_flag_clear
                0x00000000       0x22 ./firmware/at32f403a_407_usb.o
 .debug_info    0x00000000     0x20b3 ./firmware/at32f403a_407_usb.o
 .debug_abbrev  0x00000000      0x24f ./firmware/at32f403a_407_usb.o
 .debug_aranges
                0x00000000       0xb0 ./firmware/at32f403a_407_usb.o
 .debug_ranges  0x00000000       0xa0 ./firmware/at32f403a_407_usb.o
 .debug_line    0x00000000      0x608 ./firmware/at32f403a_407_usb.o
 .debug_str     0x00000000      0xe25 ./firmware/at32f403a_407_usb.o
 .comment       0x00000000       0x4a ./firmware/at32f403a_407_usb.o
 .debug_frame   0x00000000      0x304 ./firmware/at32f403a_407_usb.o
 .ARM.attributes
                0x00000000       0x34 ./firmware/at32f403a_407_usb.o
 .text          0x00000000        0x0 ./firmware/at32f403a_407_wdt.o
 .data          0x00000000        0x0 ./firmware/at32f403a_407_wdt.o
 .bss           0x00000000        0x0 ./firmware/at32f403a_407_wdt.o
 .text.wdt_enable
                0x00000000       0x1c ./firmware/at32f403a_407_wdt.o
 .text.wdt_counter_reload
                0x00000000       0x1c ./firmware/at32f403a_407_wdt.o
 .text.wdt_reload_value_set
                0x00000000       0x20 ./firmware/at32f403a_407_wdt.o
 .text.wdt_divider_set
                0x00000000       0x2c ./firmware/at32f403a_407_wdt.o
 .text.wdt_register_write_enable
                0x00000000       0x30 ./firmware/at32f403a_407_wdt.o
 .text.wdt_flag_get
                0x00000000       0x38 ./firmware/at32f403a_407_wdt.o
 .debug_info    0x00000000      0x39f ./firmware/at32f403a_407_wdt.o
 .debug_abbrev  0x00000000      0x179 ./firmware/at32f403a_407_wdt.o
 .debug_aranges
                0x00000000       0x48 ./firmware/at32f403a_407_wdt.o
 .debug_ranges  0x00000000       0x38 ./firmware/at32f403a_407_wdt.o
 .debug_line    0x00000000      0x23d ./firmware/at32f403a_407_wdt.o
 .debug_str     0x00000000      0x349 ./firmware/at32f403a_407_wdt.o
 .comment       0x00000000       0x4a ./firmware/at32f403a_407_wdt.o
 .debug_frame   0x00000000       0xf0 ./firmware/at32f403a_407_wdt.o
 .ARM.attributes
                0x00000000       0x34 ./firmware/at32f403a_407_wdt.o
 .text          0x00000000        0x0 ./firmware/at32f403a_407_wwdt.o
 .data          0x00000000        0x0 ./firmware/at32f403a_407_wwdt.o
 .bss           0x00000000        0x0 ./firmware/at32f403a_407_wwdt.o
 .text.wwdt_reset
                0x00000000       0x1c ./firmware/at32f403a_407_wwdt.o
 .text.wwdt_divider_set
                0x00000000       0x2c ./firmware/at32f403a_407_wwdt.o
 .text.wwdt_flag_clear
                0x00000000       0x18 ./firmware/at32f403a_407_wwdt.o
 .text.wwdt_enable
                0x00000000       0x28 ./firmware/at32f403a_407_wwdt.o
 .text.wwdt_interrupt_enable
                0x00000000       0x1c ./firmware/at32f403a_407_wwdt.o
 .text.wwdt_flag_get
                0x00000000       0x1c ./firmware/at32f403a_407_wwdt.o
 .text.wwdt_counter_set
                0x00000000       0x2c ./firmware/at32f403a_407_wwdt.o
 .text.wwdt_window_counter_set
                0x00000000       0x2c ./firmware/at32f403a_407_wwdt.o
 .debug_info    0x00000000      0x4ef ./firmware/at32f403a_407_wwdt.o
 .debug_abbrev  0x00000000      0x180 ./firmware/at32f403a_407_wwdt.o
 .debug_aranges
                0x00000000       0x58 ./firmware/at32f403a_407_wwdt.o
 .debug_ranges  0x00000000       0x48 ./firmware/at32f403a_407_wwdt.o
 .debug_line    0x00000000      0x274 ./firmware/at32f403a_407_wwdt.o
 .debug_str     0x00000000      0x717 ./firmware/at32f403a_407_wwdt.o
 .comment       0x00000000       0x4a ./firmware/at32f403a_407_wwdt.o
 .debug_frame   0x00000000      0x12c ./firmware/at32f403a_407_wwdt.o
 .ARM.attributes
                0x00000000       0x34 ./firmware/at32f403a_407_wwdt.o
 .text          0x00000000        0x0 ./firmware/at32f403a_407_xmc.o
 .data          0x00000000        0x0 ./firmware/at32f403a_407_xmc.o
 .bss           0x00000000        0x0 ./firmware/at32f403a_407_xmc.o
 .text.xmc_nor_sram_reset
                0x00000000       0x5c ./firmware/at32f403a_407_xmc.o
 .text.xmc_nor_sram_init
                0x00000000       0x8a ./firmware/at32f403a_407_xmc.o
 .text.xmc_nor_sram_timing_config
                0x00000000       0xba ./firmware/at32f403a_407_xmc.o
 .text.xmc_norsram_default_para_init
                0x00000000       0x66 ./firmware/at32f403a_407_xmc.o
 .text.xmc_norsram_timing_default_para_init
                0x00000000       0x82 ./firmware/at32f403a_407_xmc.o
 .text.xmc_nor_sram_enable
                0x00000000       0x36 ./firmware/at32f403a_407_xmc.o
 .text.xmc_ext_timing_config
                0x00000000       0x56 ./firmware/at32f403a_407_xmc.o
 .text.xmc_nand_reset
                0x00000000       0x3c ./firmware/at32f403a_407_xmc.o
 .text.xmc_nand_init
                0x00000000       0x5c ./firmware/at32f403a_407_xmc.o
 .text.xmc_nand_timing_config
                0x00000000       0x74 ./firmware/at32f403a_407_xmc.o
 .text.xmc_nand_default_para_init
                0x00000000       0x3e ./firmware/at32f403a_407_xmc.o
 .text.xmc_nand_timing_default_para_init
                0x00000000       0x52 ./firmware/at32f403a_407_xmc.o
 .text.xmc_nand_enable
                0x00000000       0x38 ./firmware/at32f403a_407_xmc.o
 .text.xmc_nand_ecc_enable
                0x00000000       0x38 ./firmware/at32f403a_407_xmc.o
 .text.xmc_ecc_get
                0x00000000       0x2c ./firmware/at32f403a_407_xmc.o
 .text.xmc_interrupt_enable
                0x00000000       0x54 ./firmware/at32f403a_407_xmc.o
 .text.xmc_flag_status_get
                0x00000000       0x4c ./firmware/at32f403a_407_xmc.o
 .text.xmc_flag_clear
                0x00000000       0x44 ./firmware/at32f403a_407_xmc.o
 .debug_info    0x00000000     0x11dc ./firmware/at32f403a_407_xmc.o
 .debug_abbrev  0x00000000      0x235 ./firmware/at32f403a_407_xmc.o
 .debug_aranges
                0x00000000       0xa8 ./firmware/at32f403a_407_xmc.o
 .debug_ranges  0x00000000       0x98 ./firmware/at32f403a_407_xmc.o
 .debug_line    0x00000000      0x5e9 ./firmware/at32f403a_407_xmc.o
 .debug_str     0x00000000      0xec4 ./firmware/at32f403a_407_xmc.o
 .comment       0x00000000       0x4a ./firmware/at32f403a_407_xmc.o
 .debug_frame   0x00000000      0x2e0 ./firmware/at32f403a_407_xmc.o
 .ARM.attributes
                0x00000000       0x34 ./firmware/at32f403a_407_xmc.o
 .text          0x00000000       0x14 ./cmsis/startup_at32f403a_407.o
 .data          0x00000000        0x0 ./cmsis/startup_at32f403a_407.o
 .bss           0x00000000        0x0 ./cmsis/startup_at32f403a_407.o
 .text          0x00000000        0x0 ./cmsis/system_at32f403a_407.o
 .bss           0x00000000        0x0 ./cmsis/system_at32f403a_407.o
 .text          0x00000000        0x0 ./bsp/at32f403a_407_board.o
 .text.__io_putchar
                0x00000000       0x44 ./bsp/at32f403a_407_board.o
 .text.uart_print_init
                0x00000000       0x8c ./bsp/at32f403a_407_board.o
 .text.at32_button_state
                0x00000000       0x18 ./bsp/at32f403a_407_board.o
 .text.at32_button_press
                0x00000000       0x4c ./bsp/at32f403a_407_board.o
 .text.at32_led_on
                0x00000000       0x48 ./bsp/at32f403a_407_board.o
 .text.delay_us
                0x00000000       0x6c ./bsp/at32f403a_407_board.o
 .text          0x00000000      0x254 d:/at32ide/platform/tools/gcc-arm-none-eabi-10.3-2021.10/bin/../lib/gcc/arm-none-eabi/10.3.1/thumb/v7e-m+fp/hard\libgcc.a(_arm_muldf3.o)
 .data          0x00000000        0x0 d:/at32ide/platform/tools/gcc-arm-none-eabi-10.3-2021.10/bin/../lib/gcc/arm-none-eabi/10.3.1/thumb/v7e-m+fp/hard\libgcc.a(_arm_muldf3.o)
 .bss           0x00000000        0x0 d:/at32ide/platform/tools/gcc-arm-none-eabi-10.3-2021.10/bin/../lib/gcc/arm-none-eabi/10.3.1/thumb/v7e-m+fp/hard\libgcc.a(_arm_muldf3.o)
 .debug_frame   0x00000000       0x30 d:/at32ide/platform/tools/gcc-arm-none-eabi-10.3-2021.10/bin/../lib/gcc/arm-none-eabi/10.3.1/thumb/v7e-m+fp/hard\libgcc.a(_arm_muldf3.o)
 .ARM.attributes
                0x00000000       0x1e d:/at32ide/platform/tools/gcc-arm-none-eabi-10.3-2021.10/bin/../lib/gcc/arm-none-eabi/10.3.1/thumb/v7e-m+fp/hard\libgcc.a(_arm_muldf3.o)
 .data          0x00000000        0x0 d:/at32ide/platform/tools/gcc-arm-none-eabi-10.3-2021.10/bin/../lib/gcc/arm-none-eabi/10.3.1/thumb/v7e-m+fp/hard\libgcc.a(_arm_addsubdf3.o)
 .bss           0x00000000        0x0 d:/at32ide/platform/tools/gcc-arm-none-eabi-10.3-2021.10/bin/../lib/gcc/arm-none-eabi/10.3.1/thumb/v7e-m+fp/hard\libgcc.a(_arm_addsubdf3.o)
 .data          0x00000000        0x0 d:/at32ide/platform/tools/gcc-arm-none-eabi-10.3-2021.10/bin/../lib/gcc/arm-none-eabi/10.3.1/thumb/v7e-m+fp/hard\libgcc.a(_arm_muldivdf3.o)
 .bss           0x00000000        0x0 d:/at32ide/platform/tools/gcc-arm-none-eabi-10.3-2021.10/bin/../lib/gcc/arm-none-eabi/10.3.1/thumb/v7e-m+fp/hard\libgcc.a(_arm_muldivdf3.o)
 .text          0x00000000        0x0 d:/at32ide/platform/tools/gcc-arm-none-eabi-10.3-2021.10/bin/../lib/gcc/arm-none-eabi/10.3.1/../../../../arm-none-eabi/lib/thumb/v7e-m+fp/hard\libg_nano.a(lib_a-exit.o)
 .data          0x00000000        0x0 d:/at32ide/platform/tools/gcc-arm-none-eabi-10.3-2021.10/bin/../lib/gcc/arm-none-eabi/10.3.1/../../../../arm-none-eabi/lib/thumb/v7e-m+fp/hard\libg_nano.a(lib_a-exit.o)
 .bss           0x00000000        0x0 d:/at32ide/platform/tools/gcc-arm-none-eabi-10.3-2021.10/bin/../lib/gcc/arm-none-eabi/10.3.1/../../../../arm-none-eabi/lib/thumb/v7e-m+fp/hard\libg_nano.a(lib_a-exit.o)
 .text.exit     0x00000000       0x28 d:/at32ide/platform/tools/gcc-arm-none-eabi-10.3-2021.10/bin/../lib/gcc/arm-none-eabi/10.3.1/../../../../arm-none-eabi/lib/thumb/v7e-m+fp/hard\libg_nano.a(lib_a-exit.o)
 .debug_frame   0x00000000       0x28 d:/at32ide/platform/tools/gcc-arm-none-eabi-10.3-2021.10/bin/../lib/gcc/arm-none-eabi/10.3.1/../../../../arm-none-eabi/lib/thumb/v7e-m+fp/hard\libg_nano.a(lib_a-exit.o)
 .ARM.attributes
                0x00000000       0x34 d:/at32ide/platform/tools/gcc-arm-none-eabi-10.3-2021.10/bin/../lib/gcc/arm-none-eabi/10.3.1/../../../../arm-none-eabi/lib/thumb/v7e-m+fp/hard\libg_nano.a(lib_a-exit.o)
 .text          0x00000000        0x0 d:/at32ide/platform/tools/gcc-arm-none-eabi-10.3-2021.10/bin/../lib/gcc/arm-none-eabi/10.3.1/../../../../arm-none-eabi/lib/thumb/v7e-m+fp/hard\libg_nano.a(lib_a-impure.o)
 .data          0x00000000        0x0 d:/at32ide/platform/tools/gcc-arm-none-eabi-10.3-2021.10/bin/../lib/gcc/arm-none-eabi/10.3.1/../../../../arm-none-eabi/lib/thumb/v7e-m+fp/hard\libg_nano.a(lib_a-impure.o)
 .bss           0x00000000        0x0 d:/at32ide/platform/tools/gcc-arm-none-eabi-10.3-2021.10/bin/../lib/gcc/arm-none-eabi/10.3.1/../../../../arm-none-eabi/lib/thumb/v7e-m+fp/hard\libg_nano.a(lib_a-impure.o)
 .text          0x00000000        0x0 d:/at32ide/platform/tools/gcc-arm-none-eabi-10.3-2021.10/bin/../lib/gcc/arm-none-eabi/10.3.1/../../../../arm-none-eabi/lib/thumb/v7e-m+fp/hard\libg_nano.a(lib_a-init.o)
 .data          0x00000000        0x0 d:/at32ide/platform/tools/gcc-arm-none-eabi-10.3-2021.10/bin/../lib/gcc/arm-none-eabi/10.3.1/../../../../arm-none-eabi/lib/thumb/v7e-m+fp/hard\libg_nano.a(lib_a-init.o)
 .bss           0x00000000        0x0 d:/at32ide/platform/tools/gcc-arm-none-eabi-10.3-2021.10/bin/../lib/gcc/arm-none-eabi/10.3.1/../../../../arm-none-eabi/lib/thumb/v7e-m+fp/hard\libg_nano.a(lib_a-init.o)
 .text          0x00000000        0x0 d:/at32ide/platform/tools/gcc-arm-none-eabi-10.3-2021.10/bin/../lib/gcc/arm-none-eabi/10.3.1/../../../../arm-none-eabi/lib/thumb/v7e-m+fp/hard\libg_nano.a(lib_a-memset.o)
 .data          0x00000000        0x0 d:/at32ide/platform/tools/gcc-arm-none-eabi-10.3-2021.10/bin/../lib/gcc/arm-none-eabi/10.3.1/../../../../arm-none-eabi/lib/thumb/v7e-m+fp/hard\libg_nano.a(lib_a-memset.o)
 .bss           0x00000000        0x0 d:/at32ide/platform/tools/gcc-arm-none-eabi-10.3-2021.10/bin/../lib/gcc/arm-none-eabi/10.3.1/../../../../arm-none-eabi/lib/thumb/v7e-m+fp/hard\libg_nano.a(lib_a-memset.o)
 .text          0x00000000        0x0 d:/at32ide/platform/tools/gcc-arm-none-eabi-10.3-2021.10/bin/../lib/gcc/arm-none-eabi/10.3.1/../../../../arm-none-eabi/lib/thumb/v7e-m+fp/hard\libg_nano.a(lib_a-nano-vfprintf_float.o)
 .data          0x00000000        0x0 d:/at32ide/platform/tools/gcc-arm-none-eabi-10.3-2021.10/bin/../lib/gcc/arm-none-eabi/10.3.1/../../../../arm-none-eabi/lib/thumb/v7e-m+fp/hard\libg_nano.a(lib_a-nano-vfprintf_float.o)
 .bss           0x00000000        0x0 d:/at32ide/platform/tools/gcc-arm-none-eabi-10.3-2021.10/bin/../lib/gcc/arm-none-eabi/10.3.1/../../../../arm-none-eabi/lib/thumb/v7e-m+fp/hard\libg_nano.a(lib_a-nano-vfprintf_float.o)
 .text          0x00000000        0x0 d:/at32ide/platform/tools/gcc-arm-none-eabi-10.3-2021.10/bin/../lib/gcc/arm-none-eabi/10.3.1/../../../../arm-none-eabi/lib/thumb/v7e-m+fp/hard\libg_nano.a(lib_a-nano-vfprintf_i.o)
 .data          0x00000000        0x0 d:/at32ide/platform/tools/gcc-arm-none-eabi-10.3-2021.10/bin/../lib/gcc/arm-none-eabi/10.3.1/../../../../arm-none-eabi/lib/thumb/v7e-m+fp/hard\libg_nano.a(lib_a-nano-vfprintf_i.o)
 .bss           0x00000000        0x0 d:/at32ide/platform/tools/gcc-arm-none-eabi-10.3-2021.10/bin/../lib/gcc/arm-none-eabi/10.3.1/../../../../arm-none-eabi/lib/thumb/v7e-m+fp/hard\libg_nano.a(lib_a-nano-vfprintf_i.o)
 .text          0x00000000        0x0 d:/at32ide/platform/tools/gcc-arm-none-eabi-10.3-2021.10/bin/../lib/gcc/arm-none-eabi/10.3.1/../../../../arm-none-eabi/lib/thumb/v7e-m+fp/hard\libg_nano.a(lib_a-printf.o)
 .data          0x00000000        0x0 d:/at32ide/platform/tools/gcc-arm-none-eabi-10.3-2021.10/bin/../lib/gcc/arm-none-eabi/10.3.1/../../../../arm-none-eabi/lib/thumb/v7e-m+fp/hard\libg_nano.a(lib_a-printf.o)
 .bss           0x00000000        0x0 d:/at32ide/platform/tools/gcc-arm-none-eabi-10.3-2021.10/bin/../lib/gcc/arm-none-eabi/10.3.1/../../../../arm-none-eabi/lib/thumb/v7e-m+fp/hard\libg_nano.a(lib_a-printf.o)
 .text._printf_r
                0x00000000       0x28 d:/at32ide/platform/tools/gcc-arm-none-eabi-10.3-2021.10/bin/../lib/gcc/arm-none-eabi/10.3.1/../../../../arm-none-eabi/lib/thumb/v7e-m+fp/hard\libg_nano.a(lib_a-printf.o)
 .text          0x00000000        0x0 d:/at32ide/platform/tools/gcc-arm-none-eabi-10.3-2021.10/bin/../lib/gcc/arm-none-eabi/10.3.1/../../../../arm-none-eabi/lib/thumb/v7e-m+fp/hard\libg_nano.a(lib_a-puts.o)
 .data          0x00000000        0x0 d:/at32ide/platform/tools/gcc-arm-none-eabi-10.3-2021.10/bin/../lib/gcc/arm-none-eabi/10.3.1/../../../../arm-none-eabi/lib/thumb/v7e-m+fp/hard\libg_nano.a(lib_a-puts.o)
 .bss           0x00000000        0x0 d:/at32ide/platform/tools/gcc-arm-none-eabi-10.3-2021.10/bin/../lib/gcc/arm-none-eabi/10.3.1/../../../../arm-none-eabi/lib/thumb/v7e-m+fp/hard\libg_nano.a(lib_a-puts.o)
 .text          0x00000000        0x0 d:/at32ide/platform/tools/gcc-arm-none-eabi-10.3-2021.10/bin/../lib/gcc/arm-none-eabi/10.3.1/../../../../arm-none-eabi/lib/thumb/v7e-m+fp/hard\libg_nano.a(lib_a-setvbuf.o)
 .data          0x00000000        0x0 d:/at32ide/platform/tools/gcc-arm-none-eabi-10.3-2021.10/bin/../lib/gcc/arm-none-eabi/10.3.1/../../../../arm-none-eabi/lib/thumb/v7e-m+fp/hard\libg_nano.a(lib_a-setvbuf.o)
 .bss           0x00000000        0x0 d:/at32ide/platform/tools/gcc-arm-none-eabi-10.3-2021.10/bin/../lib/gcc/arm-none-eabi/10.3.1/../../../../arm-none-eabi/lib/thumb/v7e-m+fp/hard\libg_nano.a(lib_a-setvbuf.o)
 .text.setvbuf  0x00000000      0x18c d:/at32ide/platform/tools/gcc-arm-none-eabi-10.3-2021.10/bin/../lib/gcc/arm-none-eabi/10.3.1/../../../../arm-none-eabi/lib/thumb/v7e-m+fp/hard\libg_nano.a(lib_a-setvbuf.o)
 .debug_frame   0x00000000       0x38 d:/at32ide/platform/tools/gcc-arm-none-eabi-10.3-2021.10/bin/../lib/gcc/arm-none-eabi/10.3.1/../../../../arm-none-eabi/lib/thumb/v7e-m+fp/hard\libg_nano.a(lib_a-setvbuf.o)
 .ARM.attributes
                0x00000000       0x34 d:/at32ide/platform/tools/gcc-arm-none-eabi-10.3-2021.10/bin/../lib/gcc/arm-none-eabi/10.3.1/../../../../arm-none-eabi/lib/thumb/v7e-m+fp/hard\libg_nano.a(lib_a-setvbuf.o)
 .data          0x00000000        0x0 d:/at32ide/platform/tools/gcc-arm-none-eabi-10.3-2021.10/bin/../lib/gcc/arm-none-eabi/10.3.1/../../../../arm-none-eabi/lib/thumb/v7e-m+fp/hard\libg_nano.a(lib_a-strlen.o)
 .bss           0x00000000        0x0 d:/at32ide/platform/tools/gcc-arm-none-eabi-10.3-2021.10/bin/../lib/gcc/arm-none-eabi/10.3.1/../../../../arm-none-eabi/lib/thumb/v7e-m+fp/hard\libg_nano.a(lib_a-strlen.o)
 .text          0x00000000        0x0 d:/at32ide/platform/tools/gcc-arm-none-eabi-10.3-2021.10/bin/../lib/gcc/arm-none-eabi/10.3.1/../../../../arm-none-eabi/lib/thumb/v7e-m+fp/hard\libg_nano.a(lib_a-wbuf.o)
 .data          0x00000000        0x0 d:/at32ide/platform/tools/gcc-arm-none-eabi-10.3-2021.10/bin/../lib/gcc/arm-none-eabi/10.3.1/../../../../arm-none-eabi/lib/thumb/v7e-m+fp/hard\libg_nano.a(lib_a-wbuf.o)
 .bss           0x00000000        0x0 d:/at32ide/platform/tools/gcc-arm-none-eabi-10.3-2021.10/bin/../lib/gcc/arm-none-eabi/10.3.1/../../../../arm-none-eabi/lib/thumb/v7e-m+fp/hard\libg_nano.a(lib_a-wbuf.o)
 .text.__swbuf  0x00000000       0x10 d:/at32ide/platform/tools/gcc-arm-none-eabi-10.3-2021.10/bin/../lib/gcc/arm-none-eabi/10.3.1/../../../../arm-none-eabi/lib/thumb/v7e-m+fp/hard\libg_nano.a(lib_a-wbuf.o)
 .text          0x00000000        0x0 d:/at32ide/platform/tools/gcc-arm-none-eabi-10.3-2021.10/bin/../lib/gcc/arm-none-eabi/10.3.1/../../../../arm-none-eabi/lib/thumb/v7e-m+fp/hard\libg_nano.a(lib_a-wsetup.o)
 .data          0x00000000        0x0 d:/at32ide/platform/tools/gcc-arm-none-eabi-10.3-2021.10/bin/../lib/gcc/arm-none-eabi/10.3.1/../../../../arm-none-eabi/lib/thumb/v7e-m+fp/hard\libg_nano.a(lib_a-wsetup.o)
 .bss           0x00000000        0x0 d:/at32ide/platform/tools/gcc-arm-none-eabi-10.3-2021.10/bin/../lib/gcc/arm-none-eabi/10.3.1/../../../../arm-none-eabi/lib/thumb/v7e-m+fp/hard\libg_nano.a(lib_a-wsetup.o)
 .text          0x00000000        0x0 d:/at32ide/platform/tools/gcc-arm-none-eabi-10.3-2021.10/bin/../lib/gcc/arm-none-eabi/10.3.1/../../../../arm-none-eabi/lib/thumb/v7e-m+fp/hard\libg_nano.a(lib_a-dtoa.o)
 .data          0x00000000        0x0 d:/at32ide/platform/tools/gcc-arm-none-eabi-10.3-2021.10/bin/../lib/gcc/arm-none-eabi/10.3.1/../../../../arm-none-eabi/lib/thumb/v7e-m+fp/hard\libg_nano.a(lib_a-dtoa.o)
 .bss           0x00000000        0x0 d:/at32ide/platform/tools/gcc-arm-none-eabi-10.3-2021.10/bin/../lib/gcc/arm-none-eabi/10.3.1/../../../../arm-none-eabi/lib/thumb/v7e-m+fp/hard\libg_nano.a(lib_a-dtoa.o)
 .text          0x00000000        0x0 d:/at32ide/platform/tools/gcc-arm-none-eabi-10.3-2021.10/bin/../lib/gcc/arm-none-eabi/10.3.1/../../../../arm-none-eabi/lib/thumb/v7e-m+fp/hard\libg_nano.a(lib_a-fflush.o)
 .data          0x00000000        0x0 d:/at32ide/platform/tools/gcc-arm-none-eabi-10.3-2021.10/bin/../lib/gcc/arm-none-eabi/10.3.1/../../../../arm-none-eabi/lib/thumb/v7e-m+fp/hard\libg_nano.a(lib_a-fflush.o)
 .bss           0x00000000        0x0 d:/at32ide/platform/tools/gcc-arm-none-eabi-10.3-2021.10/bin/../lib/gcc/arm-none-eabi/10.3.1/../../../../arm-none-eabi/lib/thumb/v7e-m+fp/hard\libg_nano.a(lib_a-fflush.o)
 .text.fflush   0x00000000       0x24 d:/at32ide/platform/tools/gcc-arm-none-eabi-10.3-2021.10/bin/../lib/gcc/arm-none-eabi/10.3.1/../../../../arm-none-eabi/lib/thumb/v7e-m+fp/hard\libg_nano.a(lib_a-fflush.o)
 .text          0x00000000        0x0 d:/at32ide/platform/tools/gcc-arm-none-eabi-10.3-2021.10/bin/../lib/gcc/arm-none-eabi/10.3.1/../../../../arm-none-eabi/lib/thumb/v7e-m+fp/hard\libg_nano.a(lib_a-findfp.o)
 .data          0x00000000        0x0 d:/at32ide/platform/tools/gcc-arm-none-eabi-10.3-2021.10/bin/../lib/gcc/arm-none-eabi/10.3.1/../../../../arm-none-eabi/lib/thumb/v7e-m+fp/hard\libg_nano.a(lib_a-findfp.o)
 .bss           0x00000000        0x0 d:/at32ide/platform/tools/gcc-arm-none-eabi-10.3-2021.10/bin/../lib/gcc/arm-none-eabi/10.3.1/../../../../arm-none-eabi/lib/thumb/v7e-m+fp/hard\libg_nano.a(lib_a-findfp.o)
 .text.__fp_lock
                0x00000000       0x18 d:/at32ide/platform/tools/gcc-arm-none-eabi-10.3-2021.10/bin/../lib/gcc/arm-none-eabi/10.3.1/../../../../arm-none-eabi/lib/thumb/v7e-m+fp/hard\libg_nano.a(lib_a-findfp.o)
 .text.__fp_unlock
                0x00000000       0x18 d:/at32ide/platform/tools/gcc-arm-none-eabi-10.3-2021.10/bin/../lib/gcc/arm-none-eabi/10.3.1/../../../../arm-none-eabi/lib/thumb/v7e-m+fp/hard\libg_nano.a(lib_a-findfp.o)
 .text._cleanup
                0x00000000        0xc d:/at32ide/platform/tools/gcc-arm-none-eabi-10.3-2021.10/bin/../lib/gcc/arm-none-eabi/10.3.1/../../../../arm-none-eabi/lib/thumb/v7e-m+fp/hard\libg_nano.a(lib_a-findfp.o)
 .text.__fp_lock_all
                0x00000000       0x1c d:/at32ide/platform/tools/gcc-arm-none-eabi-10.3-2021.10/bin/../lib/gcc/arm-none-eabi/10.3.1/../../../../arm-none-eabi/lib/thumb/v7e-m+fp/hard\libg_nano.a(lib_a-findfp.o)
 .text.__fp_unlock_all
                0x00000000       0x1c d:/at32ide/platform/tools/gcc-arm-none-eabi-10.3-2021.10/bin/../lib/gcc/arm-none-eabi/10.3.1/../../../../arm-none-eabi/lib/thumb/v7e-m+fp/hard\libg_nano.a(lib_a-findfp.o)
 .text          0x00000000        0x0 d:/at32ide/platform/tools/gcc-arm-none-eabi-10.3-2021.10/bin/../lib/gcc/arm-none-eabi/10.3.1/../../../../arm-none-eabi/lib/thumb/v7e-m+fp/hard\libg_nano.a(lib_a-fwalk.o)
 .data          0x00000000        0x0 d:/at32ide/platform/tools/gcc-arm-none-eabi-10.3-2021.10/bin/../lib/gcc/arm-none-eabi/10.3.1/../../../../arm-none-eabi/lib/thumb/v7e-m+fp/hard\libg_nano.a(lib_a-fwalk.o)
 .bss           0x00000000        0x0 d:/at32ide/platform/tools/gcc-arm-none-eabi-10.3-2021.10/bin/../lib/gcc/arm-none-eabi/10.3.1/../../../../arm-none-eabi/lib/thumb/v7e-m+fp/hard\libg_nano.a(lib_a-fwalk.o)
 .text._fwalk   0x00000000       0x3a d:/at32ide/platform/tools/gcc-arm-none-eabi-10.3-2021.10/bin/../lib/gcc/arm-none-eabi/10.3.1/../../../../arm-none-eabi/lib/thumb/v7e-m+fp/hard\libg_nano.a(lib_a-fwalk.o)
 .text          0x00000000        0x0 d:/at32ide/platform/tools/gcc-arm-none-eabi-10.3-2021.10/bin/../lib/gcc/arm-none-eabi/10.3.1/../../../../arm-none-eabi/lib/thumb/v7e-m+fp/hard\libg_nano.a(lib_a-localeconv.o)
 .data          0x00000000        0x0 d:/at32ide/platform/tools/gcc-arm-none-eabi-10.3-2021.10/bin/../lib/gcc/arm-none-eabi/10.3.1/../../../../arm-none-eabi/lib/thumb/v7e-m+fp/hard\libg_nano.a(lib_a-localeconv.o)
 .bss           0x00000000        0x0 d:/at32ide/platform/tools/gcc-arm-none-eabi-10.3-2021.10/bin/../lib/gcc/arm-none-eabi/10.3.1/../../../../arm-none-eabi/lib/thumb/v7e-m+fp/hard\libg_nano.a(lib_a-localeconv.o)
 .text.__localeconv_l
                0x00000000        0x4 d:/at32ide/platform/tools/gcc-arm-none-eabi-10.3-2021.10/bin/../lib/gcc/arm-none-eabi/10.3.1/../../../../arm-none-eabi/lib/thumb/v7e-m+fp/hard\libg_nano.a(lib_a-localeconv.o)
 .text.localeconv
                0x00000000        0x8 d:/at32ide/platform/tools/gcc-arm-none-eabi-10.3-2021.10/bin/../lib/gcc/arm-none-eabi/10.3.1/../../../../arm-none-eabi/lib/thumb/v7e-m+fp/hard\libg_nano.a(lib_a-localeconv.o)
 .text          0x00000000        0x0 d:/at32ide/platform/tools/gcc-arm-none-eabi-10.3-2021.10/bin/../lib/gcc/arm-none-eabi/10.3.1/../../../../arm-none-eabi/lib/thumb/v7e-m+fp/hard\libg_nano.a(lib_a-lock.o)
 .data          0x00000000        0x0 d:/at32ide/platform/tools/gcc-arm-none-eabi-10.3-2021.10/bin/../lib/gcc/arm-none-eabi/10.3.1/../../../../arm-none-eabi/lib/thumb/v7e-m+fp/hard\libg_nano.a(lib_a-lock.o)
 .bss           0x00000000        0x0 d:/at32ide/platform/tools/gcc-arm-none-eabi-10.3-2021.10/bin/../lib/gcc/arm-none-eabi/10.3.1/../../../../arm-none-eabi/lib/thumb/v7e-m+fp/hard\libg_nano.a(lib_a-lock.o)
 .text.__retarget_lock_init
                0x00000000        0x2 d:/at32ide/platform/tools/gcc-arm-none-eabi-10.3-2021.10/bin/../lib/gcc/arm-none-eabi/10.3.1/../../../../arm-none-eabi/lib/thumb/v7e-m+fp/hard\libg_nano.a(lib_a-lock.o)
 .text.__retarget_lock_close
                0x00000000        0x2 d:/at32ide/platform/tools/gcc-arm-none-eabi-10.3-2021.10/bin/../lib/gcc/arm-none-eabi/10.3.1/../../../../arm-none-eabi/lib/thumb/v7e-m+fp/hard\libg_nano.a(lib_a-lock.o)
 .text.__retarget_lock_close_recursive
                0x00000000        0x2 d:/at32ide/platform/tools/gcc-arm-none-eabi-10.3-2021.10/bin/../lib/gcc/arm-none-eabi/10.3.1/../../../../arm-none-eabi/lib/thumb/v7e-m+fp/hard\libg_nano.a(lib_a-lock.o)
 .text.__retarget_lock_acquire
                0x00000000        0x2 d:/at32ide/platform/tools/gcc-arm-none-eabi-10.3-2021.10/bin/../lib/gcc/arm-none-eabi/10.3.1/../../../../arm-none-eabi/lib/thumb/v7e-m+fp/hard\libg_nano.a(lib_a-lock.o)
 .text.__retarget_lock_try_acquire
                0x00000000        0x4 d:/at32ide/platform/tools/gcc-arm-none-eabi-10.3-2021.10/bin/../lib/gcc/arm-none-eabi/10.3.1/../../../../arm-none-eabi/lib/thumb/v7e-m+fp/hard\libg_nano.a(lib_a-lock.o)
 .text.__retarget_lock_try_acquire_recursive
                0x00000000        0x4 d:/at32ide/platform/tools/gcc-arm-none-eabi-10.3-2021.10/bin/../lib/gcc/arm-none-eabi/10.3.1/../../../../arm-none-eabi/lib/thumb/v7e-m+fp/hard\libg_nano.a(lib_a-lock.o)
 .text.__retarget_lock_release
                0x00000000        0x2 d:/at32ide/platform/tools/gcc-arm-none-eabi-10.3-2021.10/bin/../lib/gcc/arm-none-eabi/10.3.1/../../../../arm-none-eabi/lib/thumb/v7e-m+fp/hard\libg_nano.a(lib_a-lock.o)
 .bss.__lock___arc4random_mutex
                0x00000000        0x1 d:/at32ide/platform/tools/gcc-arm-none-eabi-10.3-2021.10/bin/../lib/gcc/arm-none-eabi/10.3.1/../../../../arm-none-eabi/lib/thumb/v7e-m+fp/hard\libg_nano.a(lib_a-lock.o)
 .bss.__lock___at_quick_exit_mutex
                0x00000000        0x1 d:/at32ide/platform/tools/gcc-arm-none-eabi-10.3-2021.10/bin/../lib/gcc/arm-none-eabi/10.3.1/../../../../arm-none-eabi/lib/thumb/v7e-m+fp/hard\libg_nano.a(lib_a-lock.o)
 .bss.__lock___atexit_recursive_mutex
                0x00000000        0x1 d:/at32ide/platform/tools/gcc-arm-none-eabi-10.3-2021.10/bin/../lib/gcc/arm-none-eabi/10.3.1/../../../../arm-none-eabi/lib/thumb/v7e-m+fp/hard\libg_nano.a(lib_a-lock.o)
 .bss.__lock___dd_hash_mutex
                0x00000000        0x1 d:/at32ide/platform/tools/gcc-arm-none-eabi-10.3-2021.10/bin/../lib/gcc/arm-none-eabi/10.3.1/../../../../arm-none-eabi/lib/thumb/v7e-m+fp/hard\libg_nano.a(lib_a-lock.o)
 .bss.__lock___env_recursive_mutex
                0x00000000        0x1 d:/at32ide/platform/tools/gcc-arm-none-eabi-10.3-2021.10/bin/../lib/gcc/arm-none-eabi/10.3.1/../../../../arm-none-eabi/lib/thumb/v7e-m+fp/hard\libg_nano.a(lib_a-lock.o)
 .bss.__lock___tz_mutex
                0x00000000        0x1 d:/at32ide/platform/tools/gcc-arm-none-eabi-10.3-2021.10/bin/../lib/gcc/arm-none-eabi/10.3.1/../../../../arm-none-eabi/lib/thumb/v7e-m+fp/hard\libg_nano.a(lib_a-lock.o)
 .text          0x00000000        0x0 d:/at32ide/platform/tools/gcc-arm-none-eabi-10.3-2021.10/bin/../lib/gcc/arm-none-eabi/10.3.1/../../../../arm-none-eabi/lib/thumb/v7e-m+fp/hard\libg_nano.a(lib_a-makebuf.o)
 .data          0x00000000        0x0 d:/at32ide/platform/tools/gcc-arm-none-eabi-10.3-2021.10/bin/../lib/gcc/arm-none-eabi/10.3.1/../../../../arm-none-eabi/lib/thumb/v7e-m+fp/hard\libg_nano.a(lib_a-makebuf.o)
 .bss           0x00000000        0x0 d:/at32ide/platform/tools/gcc-arm-none-eabi-10.3-2021.10/bin/../lib/gcc/arm-none-eabi/10.3.1/../../../../arm-none-eabi/lib/thumb/v7e-m+fp/hard\libg_nano.a(lib_a-makebuf.o)
 .text          0x00000000        0x0 d:/at32ide/platform/tools/gcc-arm-none-eabi-10.3-2021.10/bin/../lib/gcc/arm-none-eabi/10.3.1/../../../../arm-none-eabi/lib/thumb/v7e-m+fp/hard\libg_nano.a(lib_a-malloc.o)
 .data          0x00000000        0x0 d:/at32ide/platform/tools/gcc-arm-none-eabi-10.3-2021.10/bin/../lib/gcc/arm-none-eabi/10.3.1/../../../../arm-none-eabi/lib/thumb/v7e-m+fp/hard\libg_nano.a(lib_a-malloc.o)
 .bss           0x00000000        0x0 d:/at32ide/platform/tools/gcc-arm-none-eabi-10.3-2021.10/bin/../lib/gcc/arm-none-eabi/10.3.1/../../../../arm-none-eabi/lib/thumb/v7e-m+fp/hard\libg_nano.a(lib_a-malloc.o)
 .text.free     0x00000000       0x10 d:/at32ide/platform/tools/gcc-arm-none-eabi-10.3-2021.10/bin/../lib/gcc/arm-none-eabi/10.3.1/../../../../arm-none-eabi/lib/thumb/v7e-m+fp/hard\libg_nano.a(lib_a-malloc.o)
 .data          0x00000000        0x0 d:/at32ide/platform/tools/gcc-arm-none-eabi-10.3-2021.10/bin/../lib/gcc/arm-none-eabi/10.3.1/../../../../arm-none-eabi/lib/thumb/v7e-m+fp/hard\libg_nano.a(lib_a-memchr.o)
 .bss           0x00000000        0x0 d:/at32ide/platform/tools/gcc-arm-none-eabi-10.3-2021.10/bin/../lib/gcc/arm-none-eabi/10.3.1/../../../../arm-none-eabi/lib/thumb/v7e-m+fp/hard\libg_nano.a(lib_a-memchr.o)
 .text          0x00000000        0x0 d:/at32ide/platform/tools/gcc-arm-none-eabi-10.3-2021.10/bin/../lib/gcc/arm-none-eabi/10.3.1/../../../../arm-none-eabi/lib/thumb/v7e-m+fp/hard\libg_nano.a(lib_a-memcpy-stub.o)
 .data          0x00000000        0x0 d:/at32ide/platform/tools/gcc-arm-none-eabi-10.3-2021.10/bin/../lib/gcc/arm-none-eabi/10.3.1/../../../../arm-none-eabi/lib/thumb/v7e-m+fp/hard\libg_nano.a(lib_a-memcpy-stub.o)
 .bss           0x00000000        0x0 d:/at32ide/platform/tools/gcc-arm-none-eabi-10.3-2021.10/bin/../lib/gcc/arm-none-eabi/10.3.1/../../../../arm-none-eabi/lib/thumb/v7e-m+fp/hard\libg_nano.a(lib_a-memcpy-stub.o)
 .text          0x00000000        0x0 d:/at32ide/platform/tools/gcc-arm-none-eabi-10.3-2021.10/bin/../lib/gcc/arm-none-eabi/10.3.1/../../../../arm-none-eabi/lib/thumb/v7e-m+fp/hard\libg_nano.a(lib_a-mprec.o)
 .data          0x00000000        0x0 d:/at32ide/platform/tools/gcc-arm-none-eabi-10.3-2021.10/bin/../lib/gcc/arm-none-eabi/10.3.1/../../../../arm-none-eabi/lib/thumb/v7e-m+fp/hard\libg_nano.a(lib_a-mprec.o)
 .bss           0x00000000        0x0 d:/at32ide/platform/tools/gcc-arm-none-eabi-10.3-2021.10/bin/../lib/gcc/arm-none-eabi/10.3.1/../../../../arm-none-eabi/lib/thumb/v7e-m+fp/hard\libg_nano.a(lib_a-mprec.o)
 .text.__s2b    0x00000000       0x94 d:/at32ide/platform/tools/gcc-arm-none-eabi-10.3-2021.10/bin/../lib/gcc/arm-none-eabi/10.3.1/../../../../arm-none-eabi/lib/thumb/v7e-m+fp/hard\libg_nano.a(lib_a-mprec.o)
 .text.__ulp    0x00000000       0x58 d:/at32ide/platform/tools/gcc-arm-none-eabi-10.3-2021.10/bin/../lib/gcc/arm-none-eabi/10.3.1/../../../../arm-none-eabi/lib/thumb/v7e-m+fp/hard\libg_nano.a(lib_a-mprec.o)
 .text.__b2d    0x00000000       0xa0 d:/at32ide/platform/tools/gcc-arm-none-eabi-10.3-2021.10/bin/../lib/gcc/arm-none-eabi/10.3.1/../../../../arm-none-eabi/lib/thumb/v7e-m+fp/hard\libg_nano.a(lib_a-mprec.o)
 .text.__ratio  0x00000000       0x66 d:/at32ide/platform/tools/gcc-arm-none-eabi-10.3-2021.10/bin/../lib/gcc/arm-none-eabi/10.3.1/../../../../arm-none-eabi/lib/thumb/v7e-m+fp/hard\libg_nano.a(lib_a-mprec.o)
 .text._mprec_log10
                0x00000000       0x3c d:/at32ide/platform/tools/gcc-arm-none-eabi-10.3-2021.10/bin/../lib/gcc/arm-none-eabi/10.3.1/../../../../arm-none-eabi/lib/thumb/v7e-m+fp/hard\libg_nano.a(lib_a-mprec.o)
 .text.__copybits
                0x00000000       0x46 d:/at32ide/platform/tools/gcc-arm-none-eabi-10.3-2021.10/bin/../lib/gcc/arm-none-eabi/10.3.1/../../../../arm-none-eabi/lib/thumb/v7e-m+fp/hard\libg_nano.a(lib_a-mprec.o)
 .text.__any_on
                0x00000000       0x42 d:/at32ide/platform/tools/gcc-arm-none-eabi-10.3-2021.10/bin/../lib/gcc/arm-none-eabi/10.3.1/../../../../arm-none-eabi/lib/thumb/v7e-m+fp/hard\libg_nano.a(lib_a-mprec.o)
 .rodata.__mprec_tinytens
                0x00000000       0x28 d:/at32ide/platform/tools/gcc-arm-none-eabi-10.3-2021.10/bin/../lib/gcc/arm-none-eabi/10.3.1/../../../../arm-none-eabi/lib/thumb/v7e-m+fp/hard\libg_nano.a(lib_a-mprec.o)
 .text          0x00000000        0x0 d:/at32ide/platform/tools/gcc-arm-none-eabi-10.3-2021.10/bin/../lib/gcc/arm-none-eabi/10.3.1/../../../../arm-none-eabi/lib/thumb/v7e-m+fp/hard\libg_nano.a(lib_a-nano-callocr.o)
 .data          0x00000000        0x0 d:/at32ide/platform/tools/gcc-arm-none-eabi-10.3-2021.10/bin/../lib/gcc/arm-none-eabi/10.3.1/../../../../arm-none-eabi/lib/thumb/v7e-m+fp/hard\libg_nano.a(lib_a-nano-callocr.o)
 .bss           0x00000000        0x0 d:/at32ide/platform/tools/gcc-arm-none-eabi-10.3-2021.10/bin/../lib/gcc/arm-none-eabi/10.3.1/../../../../arm-none-eabi/lib/thumb/v7e-m+fp/hard\libg_nano.a(lib_a-nano-callocr.o)
 .text          0x00000000        0x0 d:/at32ide/platform/tools/gcc-arm-none-eabi-10.3-2021.10/bin/../lib/gcc/arm-none-eabi/10.3.1/../../../../arm-none-eabi/lib/thumb/v7e-m+fp/hard\libg_nano.a(lib_a-nano-freer.o)
 .data          0x00000000        0x0 d:/at32ide/platform/tools/gcc-arm-none-eabi-10.3-2021.10/bin/../lib/gcc/arm-none-eabi/10.3.1/../../../../arm-none-eabi/lib/thumb/v7e-m+fp/hard\libg_nano.a(lib_a-nano-freer.o)
 .bss           0x00000000        0x0 d:/at32ide/platform/tools/gcc-arm-none-eabi-10.3-2021.10/bin/../lib/gcc/arm-none-eabi/10.3.1/../../../../arm-none-eabi/lib/thumb/v7e-m+fp/hard\libg_nano.a(lib_a-nano-freer.o)
 .text          0x00000000        0x0 d:/at32ide/platform/tools/gcc-arm-none-eabi-10.3-2021.10/bin/../lib/gcc/arm-none-eabi/10.3.1/../../../../arm-none-eabi/lib/thumb/v7e-m+fp/hard\libg_nano.a(lib_a-nano-mallocr.o)
 .data          0x00000000        0x0 d:/at32ide/platform/tools/gcc-arm-none-eabi-10.3-2021.10/bin/../lib/gcc/arm-none-eabi/10.3.1/../../../../arm-none-eabi/lib/thumb/v7e-m+fp/hard\libg_nano.a(lib_a-nano-mallocr.o)
 .bss           0x00000000        0x0 d:/at32ide/platform/tools/gcc-arm-none-eabi-10.3-2021.10/bin/../lib/gcc/arm-none-eabi/10.3.1/../../../../arm-none-eabi/lib/thumb/v7e-m+fp/hard\libg_nano.a(lib_a-nano-mallocr.o)
 .text          0x00000000        0x0 d:/at32ide/platform/tools/gcc-arm-none-eabi-10.3-2021.10/bin/../lib/gcc/arm-none-eabi/10.3.1/../../../../arm-none-eabi/lib/thumb/v7e-m+fp/hard\libg_nano.a(lib_a-nano-vfprintf.o)
 .data          0x00000000        0x0 d:/at32ide/platform/tools/gcc-arm-none-eabi-10.3-2021.10/bin/../lib/gcc/arm-none-eabi/10.3.1/../../../../arm-none-eabi/lib/thumb/v7e-m+fp/hard\libg_nano.a(lib_a-nano-vfprintf.o)
 .bss           0x00000000        0x0 d:/at32ide/platform/tools/gcc-arm-none-eabi-10.3-2021.10/bin/../lib/gcc/arm-none-eabi/10.3.1/../../../../arm-none-eabi/lib/thumb/v7e-m+fp/hard\libg_nano.a(lib_a-nano-vfprintf.o)
 .text.__sprint_r
                0x00000000       0x1a d:/at32ide/platform/tools/gcc-arm-none-eabi-10.3-2021.10/bin/../lib/gcc/arm-none-eabi/10.3.1/../../../../arm-none-eabi/lib/thumb/v7e-m+fp/hard\libg_nano.a(lib_a-nano-vfprintf.o)
 .text.vfprintf
                0x00000000       0x14 d:/at32ide/platform/tools/gcc-arm-none-eabi-10.3-2021.10/bin/../lib/gcc/arm-none-eabi/10.3.1/../../../../arm-none-eabi/lib/thumb/v7e-m+fp/hard\libg_nano.a(lib_a-nano-vfprintf.o)
 .text          0x00000000        0x0 d:/at32ide/platform/tools/gcc-arm-none-eabi-10.3-2021.10/bin/../lib/gcc/arm-none-eabi/10.3.1/../../../../arm-none-eabi/lib/thumb/v7e-m+fp/hard\libg_nano.a(lib_a-sbrkr.o)
 .data          0x00000000        0x0 d:/at32ide/platform/tools/gcc-arm-none-eabi-10.3-2021.10/bin/../lib/gcc/arm-none-eabi/10.3.1/../../../../arm-none-eabi/lib/thumb/v7e-m+fp/hard\libg_nano.a(lib_a-sbrkr.o)
 .bss           0x00000000        0x0 d:/at32ide/platform/tools/gcc-arm-none-eabi-10.3-2021.10/bin/../lib/gcc/arm-none-eabi/10.3.1/../../../../arm-none-eabi/lib/thumb/v7e-m+fp/hard\libg_nano.a(lib_a-sbrkr.o)
 .text          0x00000000        0x0 d:/at32ide/platform/tools/gcc-arm-none-eabi-10.3-2021.10/bin/../lib/gcc/arm-none-eabi/10.3.1/../../../../arm-none-eabi/lib/thumb/v7e-m+fp/hard\libg_nano.a(lib_a-stdio.o)
 .data          0x00000000        0x0 d:/at32ide/platform/tools/gcc-arm-none-eabi-10.3-2021.10/bin/../lib/gcc/arm-none-eabi/10.3.1/../../../../arm-none-eabi/lib/thumb/v7e-m+fp/hard\libg_nano.a(lib_a-stdio.o)
 .bss           0x00000000        0x0 d:/at32ide/platform/tools/gcc-arm-none-eabi-10.3-2021.10/bin/../lib/gcc/arm-none-eabi/10.3.1/../../../../arm-none-eabi/lib/thumb/v7e-m+fp/hard\libg_nano.a(lib_a-stdio.o)
 .text.__seofread
                0x00000000        0x4 d:/at32ide/platform/tools/gcc-arm-none-eabi-10.3-2021.10/bin/../lib/gcc/arm-none-eabi/10.3.1/../../../../arm-none-eabi/lib/thumb/v7e-m+fp/hard\libg_nano.a(lib_a-stdio.o)
 .text          0x00000000        0x0 d:/at32ide/platform/tools/gcc-arm-none-eabi-10.3-2021.10/bin/../lib/gcc/arm-none-eabi/10.3.1/../../../../arm-none-eabi/lib/thumb/v7e-m+fp/hard\libg_nano.a(lib_a-writer.o)
 .data          0x00000000        0x0 d:/at32ide/platform/tools/gcc-arm-none-eabi-10.3-2021.10/bin/../lib/gcc/arm-none-eabi/10.3.1/../../../../arm-none-eabi/lib/thumb/v7e-m+fp/hard\libg_nano.a(lib_a-writer.o)
 .bss           0x00000000        0x0 d:/at32ide/platform/tools/gcc-arm-none-eabi-10.3-2021.10/bin/../lib/gcc/arm-none-eabi/10.3.1/../../../../arm-none-eabi/lib/thumb/v7e-m+fp/hard\libg_nano.a(lib_a-writer.o)
 .text          0x00000000        0x0 d:/at32ide/platform/tools/gcc-arm-none-eabi-10.3-2021.10/bin/../lib/gcc/arm-none-eabi/10.3.1/../../../../arm-none-eabi/lib/thumb/v7e-m+fp/hard\libg_nano.a(lib_a-assert.o)
 .data          0x00000000        0x0 d:/at32ide/platform/tools/gcc-arm-none-eabi-10.3-2021.10/bin/../lib/gcc/arm-none-eabi/10.3.1/../../../../arm-none-eabi/lib/thumb/v7e-m+fp/hard\libg_nano.a(lib_a-assert.o)
 .bss           0x00000000        0x0 d:/at32ide/platform/tools/gcc-arm-none-eabi-10.3-2021.10/bin/../lib/gcc/arm-none-eabi/10.3.1/../../../../arm-none-eabi/lib/thumb/v7e-m+fp/hard\libg_nano.a(lib_a-assert.o)
 .text.__assert
                0x00000000        0xa d:/at32ide/platform/tools/gcc-arm-none-eabi-10.3-2021.10/bin/../lib/gcc/arm-none-eabi/10.3.1/../../../../arm-none-eabi/lib/thumb/v7e-m+fp/hard\libg_nano.a(lib_a-assert.o)
 .text          0x00000000        0x0 d:/at32ide/platform/tools/gcc-arm-none-eabi-10.3-2021.10/bin/../lib/gcc/arm-none-eabi/10.3.1/../../../../arm-none-eabi/lib/thumb/v7e-m+fp/hard\libg_nano.a(lib_a-closer.o)
 .data          0x00000000        0x0 d:/at32ide/platform/tools/gcc-arm-none-eabi-10.3-2021.10/bin/../lib/gcc/arm-none-eabi/10.3.1/../../../../arm-none-eabi/lib/thumb/v7e-m+fp/hard\libg_nano.a(lib_a-closer.o)
 .bss           0x00000000        0x0 d:/at32ide/platform/tools/gcc-arm-none-eabi-10.3-2021.10/bin/../lib/gcc/arm-none-eabi/10.3.1/../../../../arm-none-eabi/lib/thumb/v7e-m+fp/hard\libg_nano.a(lib_a-closer.o)
 .text          0x00000000        0x0 d:/at32ide/platform/tools/gcc-arm-none-eabi-10.3-2021.10/bin/../lib/gcc/arm-none-eabi/10.3.1/../../../../arm-none-eabi/lib/thumb/v7e-m+fp/hard\libg_nano.a(lib_a-fprintf.o)
 .data          0x00000000        0x0 d:/at32ide/platform/tools/gcc-arm-none-eabi-10.3-2021.10/bin/../lib/gcc/arm-none-eabi/10.3.1/../../../../arm-none-eabi/lib/thumb/v7e-m+fp/hard\libg_nano.a(lib_a-fprintf.o)
 .bss           0x00000000        0x0 d:/at32ide/platform/tools/gcc-arm-none-eabi-10.3-2021.10/bin/../lib/gcc/arm-none-eabi/10.3.1/../../../../arm-none-eabi/lib/thumb/v7e-m+fp/hard\libg_nano.a(lib_a-fprintf.o)
 .text._fprintf_r
                0x00000000       0x1a d:/at32ide/platform/tools/gcc-arm-none-eabi-10.3-2021.10/bin/../lib/gcc/arm-none-eabi/10.3.1/../../../../arm-none-eabi/lib/thumb/v7e-m+fp/hard\libg_nano.a(lib_a-fprintf.o)
 .text          0x00000000        0x0 d:/at32ide/platform/tools/gcc-arm-none-eabi-10.3-2021.10/bin/../lib/gcc/arm-none-eabi/10.3.1/../../../../arm-none-eabi/lib/thumb/v7e-m+fp/hard\libg_nano.a(lib_a-fstatr.o)
 .data          0x00000000        0x0 d:/at32ide/platform/tools/gcc-arm-none-eabi-10.3-2021.10/bin/../lib/gcc/arm-none-eabi/10.3.1/../../../../arm-none-eabi/lib/thumb/v7e-m+fp/hard\libg_nano.a(lib_a-fstatr.o)
 .bss           0x00000000        0x0 d:/at32ide/platform/tools/gcc-arm-none-eabi-10.3-2021.10/bin/../lib/gcc/arm-none-eabi/10.3.1/../../../../arm-none-eabi/lib/thumb/v7e-m+fp/hard\libg_nano.a(lib_a-fstatr.o)
 .text          0x00000000        0x0 d:/at32ide/platform/tools/gcc-arm-none-eabi-10.3-2021.10/bin/../lib/gcc/arm-none-eabi/10.3.1/../../../../arm-none-eabi/lib/thumb/v7e-m+fp/hard\libg_nano.a(lib_a-fvwrite.o)
 .data          0x00000000        0x0 d:/at32ide/platform/tools/gcc-arm-none-eabi-10.3-2021.10/bin/../lib/gcc/arm-none-eabi/10.3.1/../../../../arm-none-eabi/lib/thumb/v7e-m+fp/hard\libg_nano.a(lib_a-fvwrite.o)
 .bss           0x00000000        0x0 d:/at32ide/platform/tools/gcc-arm-none-eabi-10.3-2021.10/bin/../lib/gcc/arm-none-eabi/10.3.1/../../../../arm-none-eabi/lib/thumb/v7e-m+fp/hard\libg_nano.a(lib_a-fvwrite.o)
 .text.__sfvwrite_r
                0x00000000      0x294 d:/at32ide/platform/tools/gcc-arm-none-eabi-10.3-2021.10/bin/../lib/gcc/arm-none-eabi/10.3.1/../../../../arm-none-eabi/lib/thumb/v7e-m+fp/hard\libg_nano.a(lib_a-fvwrite.o)
 .debug_frame   0x00000000       0x3c d:/at32ide/platform/tools/gcc-arm-none-eabi-10.3-2021.10/bin/../lib/gcc/arm-none-eabi/10.3.1/../../../../arm-none-eabi/lib/thumb/v7e-m+fp/hard\libg_nano.a(lib_a-fvwrite.o)
 .ARM.attributes
                0x00000000       0x34 d:/at32ide/platform/tools/gcc-arm-none-eabi-10.3-2021.10/bin/../lib/gcc/arm-none-eabi/10.3.1/../../../../arm-none-eabi/lib/thumb/v7e-m+fp/hard\libg_nano.a(lib_a-fvwrite.o)
 .text          0x00000000        0x0 d:/at32ide/platform/tools/gcc-arm-none-eabi-10.3-2021.10/bin/../lib/gcc/arm-none-eabi/10.3.1/../../../../arm-none-eabi/lib/thumb/v7e-m+fp/hard\libg_nano.a(lib_a-isattyr.o)
 .data          0x00000000        0x0 d:/at32ide/platform/tools/gcc-arm-none-eabi-10.3-2021.10/bin/../lib/gcc/arm-none-eabi/10.3.1/../../../../arm-none-eabi/lib/thumb/v7e-m+fp/hard\libg_nano.a(lib_a-isattyr.o)
 .bss           0x00000000        0x0 d:/at32ide/platform/tools/gcc-arm-none-eabi-10.3-2021.10/bin/../lib/gcc/arm-none-eabi/10.3.1/../../../../arm-none-eabi/lib/thumb/v7e-m+fp/hard\libg_nano.a(lib_a-isattyr.o)
 .text          0x00000000        0x0 d:/at32ide/platform/tools/gcc-arm-none-eabi-10.3-2021.10/bin/../lib/gcc/arm-none-eabi/10.3.1/../../../../arm-none-eabi/lib/thumb/v7e-m+fp/hard\libg_nano.a(lib_a-locale.o)
 .data          0x00000000        0x0 d:/at32ide/platform/tools/gcc-arm-none-eabi-10.3-2021.10/bin/../lib/gcc/arm-none-eabi/10.3.1/../../../../arm-none-eabi/lib/thumb/v7e-m+fp/hard\libg_nano.a(lib_a-locale.o)
 .bss           0x00000000        0x0 d:/at32ide/platform/tools/gcc-arm-none-eabi-10.3-2021.10/bin/../lib/gcc/arm-none-eabi/10.3.1/../../../../arm-none-eabi/lib/thumb/v7e-m+fp/hard\libg_nano.a(lib_a-locale.o)
 .text._setlocale_r
                0x00000000       0x40 d:/at32ide/platform/tools/gcc-arm-none-eabi-10.3-2021.10/bin/../lib/gcc/arm-none-eabi/10.3.1/../../../../arm-none-eabi/lib/thumb/v7e-m+fp/hard\libg_nano.a(lib_a-locale.o)
 .text.__locale_mb_cur_max
                0x00000000        0xc d:/at32ide/platform/tools/gcc-arm-none-eabi-10.3-2021.10/bin/../lib/gcc/arm-none-eabi/10.3.1/../../../../arm-none-eabi/lib/thumb/v7e-m+fp/hard\libg_nano.a(lib_a-locale.o)
 .text.setlocale
                0x00000000       0x10 d:/at32ide/platform/tools/gcc-arm-none-eabi-10.3-2021.10/bin/../lib/gcc/arm-none-eabi/10.3.1/../../../../arm-none-eabi/lib/thumb/v7e-m+fp/hard\libg_nano.a(lib_a-locale.o)
 .bss._PathLocale
                0x00000000        0x4 d:/at32ide/platform/tools/gcc-arm-none-eabi-10.3-2021.10/bin/../lib/gcc/arm-none-eabi/10.3.1/../../../../arm-none-eabi/lib/thumb/v7e-m+fp/hard\libg_nano.a(lib_a-locale.o)
 .text          0x00000000        0x0 d:/at32ide/platform/tools/gcc-arm-none-eabi-10.3-2021.10/bin/../lib/gcc/arm-none-eabi/10.3.1/../../../../arm-none-eabi/lib/thumb/v7e-m+fp/hard\libg_nano.a(lib_a-lseekr.o)
 .data          0x00000000        0x0 d:/at32ide/platform/tools/gcc-arm-none-eabi-10.3-2021.10/bin/../lib/gcc/arm-none-eabi/10.3.1/../../../../arm-none-eabi/lib/thumb/v7e-m+fp/hard\libg_nano.a(lib_a-lseekr.o)
 .bss           0x00000000        0x0 d:/at32ide/platform/tools/gcc-arm-none-eabi-10.3-2021.10/bin/../lib/gcc/arm-none-eabi/10.3.1/../../../../arm-none-eabi/lib/thumb/v7e-m+fp/hard\libg_nano.a(lib_a-lseekr.o)
 .text          0x00000000        0x0 d:/at32ide/platform/tools/gcc-arm-none-eabi-10.3-2021.10/bin/../lib/gcc/arm-none-eabi/10.3.1/../../../../arm-none-eabi/lib/thumb/v7e-m+fp/hard\libg_nano.a(lib_a-mbtowc_r.o)
 .data          0x00000000        0x0 d:/at32ide/platform/tools/gcc-arm-none-eabi-10.3-2021.10/bin/../lib/gcc/arm-none-eabi/10.3.1/../../../../arm-none-eabi/lib/thumb/v7e-m+fp/hard\libg_nano.a(lib_a-mbtowc_r.o)
 .bss           0x00000000        0x0 d:/at32ide/platform/tools/gcc-arm-none-eabi-10.3-2021.10/bin/../lib/gcc/arm-none-eabi/10.3.1/../../../../arm-none-eabi/lib/thumb/v7e-m+fp/hard\libg_nano.a(lib_a-mbtowc_r.o)
 .text._mbtowc_r
                0x00000000       0x14 d:/at32ide/platform/tools/gcc-arm-none-eabi-10.3-2021.10/bin/../lib/gcc/arm-none-eabi/10.3.1/../../../../arm-none-eabi/lib/thumb/v7e-m+fp/hard\libg_nano.a(lib_a-mbtowc_r.o)
 .text          0x00000000        0x0 d:/at32ide/platform/tools/gcc-arm-none-eabi-10.3-2021.10/bin/../lib/gcc/arm-none-eabi/10.3.1/../../../../arm-none-eabi/lib/thumb/v7e-m+fp/hard\libg_nano.a(lib_a-memmove.o)
 .data          0x00000000        0x0 d:/at32ide/platform/tools/gcc-arm-none-eabi-10.3-2021.10/bin/../lib/gcc/arm-none-eabi/10.3.1/../../../../arm-none-eabi/lib/thumb/v7e-m+fp/hard\libg_nano.a(lib_a-memmove.o)
 .bss           0x00000000        0x0 d:/at32ide/platform/tools/gcc-arm-none-eabi-10.3-2021.10/bin/../lib/gcc/arm-none-eabi/10.3.1/../../../../arm-none-eabi/lib/thumb/v7e-m+fp/hard\libg_nano.a(lib_a-memmove.o)
 .text.memmove  0x00000000       0x34 d:/at32ide/platform/tools/gcc-arm-none-eabi-10.3-2021.10/bin/../lib/gcc/arm-none-eabi/10.3.1/../../../../arm-none-eabi/lib/thumb/v7e-m+fp/hard\libg_nano.a(lib_a-memmove.o)
 .debug_frame   0x00000000       0x28 d:/at32ide/platform/tools/gcc-arm-none-eabi-10.3-2021.10/bin/../lib/gcc/arm-none-eabi/10.3.1/../../../../arm-none-eabi/lib/thumb/v7e-m+fp/hard\libg_nano.a(lib_a-memmove.o)
 .ARM.attributes
                0x00000000       0x34 d:/at32ide/platform/tools/gcc-arm-none-eabi-10.3-2021.10/bin/../lib/gcc/arm-none-eabi/10.3.1/../../../../arm-none-eabi/lib/thumb/v7e-m+fp/hard\libg_nano.a(lib_a-memmove.o)
 .text          0x00000000        0x0 d:/at32ide/platform/tools/gcc-arm-none-eabi-10.3-2021.10/bin/../lib/gcc/arm-none-eabi/10.3.1/../../../../arm-none-eabi/lib/thumb/v7e-m+fp/hard\libg_nano.a(lib_a-mlock.o)
 .data          0x00000000        0x0 d:/at32ide/platform/tools/gcc-arm-none-eabi-10.3-2021.10/bin/../lib/gcc/arm-none-eabi/10.3.1/../../../../arm-none-eabi/lib/thumb/v7e-m+fp/hard\libg_nano.a(lib_a-mlock.o)
 .bss           0x00000000        0x0 d:/at32ide/platform/tools/gcc-arm-none-eabi-10.3-2021.10/bin/../lib/gcc/arm-none-eabi/10.3.1/../../../../arm-none-eabi/lib/thumb/v7e-m+fp/hard\libg_nano.a(lib_a-mlock.o)
 .text          0x00000000        0x0 d:/at32ide/platform/tools/gcc-arm-none-eabi-10.3-2021.10/bin/../lib/gcc/arm-none-eabi/10.3.1/../../../../arm-none-eabi/lib/thumb/v7e-m+fp/hard\libg_nano.a(lib_a-nano-reallocr.o)
 .data          0x00000000        0x0 d:/at32ide/platform/tools/gcc-arm-none-eabi-10.3-2021.10/bin/../lib/gcc/arm-none-eabi/10.3.1/../../../../arm-none-eabi/lib/thumb/v7e-m+fp/hard\libg_nano.a(lib_a-nano-reallocr.o)
 .bss           0x00000000        0x0 d:/at32ide/platform/tools/gcc-arm-none-eabi-10.3-2021.10/bin/../lib/gcc/arm-none-eabi/10.3.1/../../../../arm-none-eabi/lib/thumb/v7e-m+fp/hard\libg_nano.a(lib_a-nano-reallocr.o)
 .text._realloc_r
                0x00000000       0x5e d:/at32ide/platform/tools/gcc-arm-none-eabi-10.3-2021.10/bin/../lib/gcc/arm-none-eabi/10.3.1/../../../../arm-none-eabi/lib/thumb/v7e-m+fp/hard\libg_nano.a(lib_a-nano-reallocr.o)
 .debug_frame   0x00000000       0x3c d:/at32ide/platform/tools/gcc-arm-none-eabi-10.3-2021.10/bin/../lib/gcc/arm-none-eabi/10.3.1/../../../../arm-none-eabi/lib/thumb/v7e-m+fp/hard\libg_nano.a(lib_a-nano-reallocr.o)
 .ARM.attributes
                0x00000000       0x34 d:/at32ide/platform/tools/gcc-arm-none-eabi-10.3-2021.10/bin/../lib/gcc/arm-none-eabi/10.3.1/../../../../arm-none-eabi/lib/thumb/v7e-m+fp/hard\libg_nano.a(lib_a-nano-reallocr.o)
 .text          0x00000000        0x0 d:/at32ide/platform/tools/gcc-arm-none-eabi-10.3-2021.10/bin/../lib/gcc/arm-none-eabi/10.3.1/../../../../arm-none-eabi/lib/thumb/v7e-m+fp/hard\libg_nano.a(lib_a-readr.o)
 .data          0x00000000        0x0 d:/at32ide/platform/tools/gcc-arm-none-eabi-10.3-2021.10/bin/../lib/gcc/arm-none-eabi/10.3.1/../../../../arm-none-eabi/lib/thumb/v7e-m+fp/hard\libg_nano.a(lib_a-readr.o)
 .bss           0x00000000        0x0 d:/at32ide/platform/tools/gcc-arm-none-eabi-10.3-2021.10/bin/../lib/gcc/arm-none-eabi/10.3.1/../../../../arm-none-eabi/lib/thumb/v7e-m+fp/hard\libg_nano.a(lib_a-readr.o)
 .text          0x00000000        0x0 d:/at32ide/platform/tools/gcc-arm-none-eabi-10.3-2021.10/bin/../lib/gcc/arm-none-eabi/10.3.1/../../../../arm-none-eabi/lib/thumb/v7e-m+fp/hard\libg_nano.a(lib_a-reent.o)
 .data          0x00000000        0x0 d:/at32ide/platform/tools/gcc-arm-none-eabi-10.3-2021.10/bin/../lib/gcc/arm-none-eabi/10.3.1/../../../../arm-none-eabi/lib/thumb/v7e-m+fp/hard\libg_nano.a(lib_a-reent.o)
 .bss           0x00000000        0x0 d:/at32ide/platform/tools/gcc-arm-none-eabi-10.3-2021.10/bin/../lib/gcc/arm-none-eabi/10.3.1/../../../../arm-none-eabi/lib/thumb/v7e-m+fp/hard\libg_nano.a(lib_a-reent.o)
 .text.cleanup_glue
                0x00000000       0x1a d:/at32ide/platform/tools/gcc-arm-none-eabi-10.3-2021.10/bin/../lib/gcc/arm-none-eabi/10.3.1/../../../../arm-none-eabi/lib/thumb/v7e-m+fp/hard\libg_nano.a(lib_a-reent.o)
 .text._reclaim_reent
                0x00000000       0xb8 d:/at32ide/platform/tools/gcc-arm-none-eabi-10.3-2021.10/bin/../lib/gcc/arm-none-eabi/10.3.1/../../../../arm-none-eabi/lib/thumb/v7e-m+fp/hard\libg_nano.a(lib_a-reent.o)
 .text          0x00000000       0x14 d:/at32ide/platform/tools/gcc-arm-none-eabi-10.3-2021.10/bin/../lib/gcc/arm-none-eabi/10.3.1/../../../../arm-none-eabi/lib/thumb/v7e-m+fp/hard\libg_nano.a(lib_a-strcmp.o)
 .data          0x00000000        0x0 d:/at32ide/platform/tools/gcc-arm-none-eabi-10.3-2021.10/bin/../lib/gcc/arm-none-eabi/10.3.1/../../../../arm-none-eabi/lib/thumb/v7e-m+fp/hard\libg_nano.a(lib_a-strcmp.o)
 .bss           0x00000000        0x0 d:/at32ide/platform/tools/gcc-arm-none-eabi-10.3-2021.10/bin/../lib/gcc/arm-none-eabi/10.3.1/../../../../arm-none-eabi/lib/thumb/v7e-m+fp/hard\libg_nano.a(lib_a-strcmp.o)
 .debug_frame   0x00000000       0x20 d:/at32ide/platform/tools/gcc-arm-none-eabi-10.3-2021.10/bin/../lib/gcc/arm-none-eabi/10.3.1/../../../../arm-none-eabi/lib/thumb/v7e-m+fp/hard\libg_nano.a(lib_a-strcmp.o)
 .ARM.attributes
                0x00000000       0x1c d:/at32ide/platform/tools/gcc-arm-none-eabi-10.3-2021.10/bin/../lib/gcc/arm-none-eabi/10.3.1/../../../../arm-none-eabi/lib/thumb/v7e-m+fp/hard\libg_nano.a(lib_a-strcmp.o)
 .text          0x00000000        0x0 d:/at32ide/platform/tools/gcc-arm-none-eabi-10.3-2021.10/bin/../lib/gcc/arm-none-eabi/10.3.1/../../../../arm-none-eabi/lib/thumb/v7e-m+fp/hard\libg_nano.a(lib_a-wctomb_r.o)
 .data          0x00000000        0x0 d:/at32ide/platform/tools/gcc-arm-none-eabi-10.3-2021.10/bin/../lib/gcc/arm-none-eabi/10.3.1/../../../../arm-none-eabi/lib/thumb/v7e-m+fp/hard\libg_nano.a(lib_a-wctomb_r.o)
 .bss           0x00000000        0x0 d:/at32ide/platform/tools/gcc-arm-none-eabi-10.3-2021.10/bin/../lib/gcc/arm-none-eabi/10.3.1/../../../../arm-none-eabi/lib/thumb/v7e-m+fp/hard\libg_nano.a(lib_a-wctomb_r.o)
 .text._wctomb_r
                0x00000000       0x14 d:/at32ide/platform/tools/gcc-arm-none-eabi-10.3-2021.10/bin/../lib/gcc/arm-none-eabi/10.3.1/../../../../arm-none-eabi/lib/thumb/v7e-m+fp/hard\libg_nano.a(lib_a-wctomb_r.o)
 .text          0x00000000        0x0 d:/at32ide/platform/tools/gcc-arm-none-eabi-10.3-2021.10/bin/../lib/gcc/arm-none-eabi/10.3.1/../../../../arm-none-eabi/lib/thumb/v7e-m+fp/hard\libg_nano.a(lib_a-abort.o)
 .data          0x00000000        0x0 d:/at32ide/platform/tools/gcc-arm-none-eabi-10.3-2021.10/bin/../lib/gcc/arm-none-eabi/10.3.1/../../../../arm-none-eabi/lib/thumb/v7e-m+fp/hard\libg_nano.a(lib_a-abort.o)
 .bss           0x00000000        0x0 d:/at32ide/platform/tools/gcc-arm-none-eabi-10.3-2021.10/bin/../lib/gcc/arm-none-eabi/10.3.1/../../../../arm-none-eabi/lib/thumb/v7e-m+fp/hard\libg_nano.a(lib_a-abort.o)
 .text          0x00000000        0x0 d:/at32ide/platform/tools/gcc-arm-none-eabi-10.3-2021.10/bin/../lib/gcc/arm-none-eabi/10.3.1/../../../../arm-none-eabi/lib/thumb/v7e-m+fp/hard\libg_nano.a(lib_a-ctype_.o)
 .data          0x00000000        0x0 d:/at32ide/platform/tools/gcc-arm-none-eabi-10.3-2021.10/bin/../lib/gcc/arm-none-eabi/10.3.1/../../../../arm-none-eabi/lib/thumb/v7e-m+fp/hard\libg_nano.a(lib_a-ctype_.o)
 .bss           0x00000000        0x0 d:/at32ide/platform/tools/gcc-arm-none-eabi-10.3-2021.10/bin/../lib/gcc/arm-none-eabi/10.3.1/../../../../arm-none-eabi/lib/thumb/v7e-m+fp/hard\libg_nano.a(lib_a-ctype_.o)
 .text          0x00000000        0x0 d:/at32ide/platform/tools/gcc-arm-none-eabi-10.3-2021.10/bin/../lib/gcc/arm-none-eabi/10.3.1/../../../../arm-none-eabi/lib/thumb/v7e-m+fp/hard\libg_nano.a(lib_a-nano-msizer.o)
 .data          0x00000000        0x0 d:/at32ide/platform/tools/gcc-arm-none-eabi-10.3-2021.10/bin/../lib/gcc/arm-none-eabi/10.3.1/../../../../arm-none-eabi/lib/thumb/v7e-m+fp/hard\libg_nano.a(lib_a-nano-msizer.o)
 .bss           0x00000000        0x0 d:/at32ide/platform/tools/gcc-arm-none-eabi-10.3-2021.10/bin/../lib/gcc/arm-none-eabi/10.3.1/../../../../arm-none-eabi/lib/thumb/v7e-m+fp/hard\libg_nano.a(lib_a-nano-msizer.o)
 .text._malloc_usable_size_r
                0x00000000       0x10 d:/at32ide/platform/tools/gcc-arm-none-eabi-10.3-2021.10/bin/../lib/gcc/arm-none-eabi/10.3.1/../../../../arm-none-eabi/lib/thumb/v7e-m+fp/hard\libg_nano.a(lib_a-nano-msizer.o)
 .debug_frame   0x00000000       0x20 d:/at32ide/platform/tools/gcc-arm-none-eabi-10.3-2021.10/bin/../lib/gcc/arm-none-eabi/10.3.1/../../../../arm-none-eabi/lib/thumb/v7e-m+fp/hard\libg_nano.a(lib_a-nano-msizer.o)
 .ARM.attributes
                0x00000000       0x34 d:/at32ide/platform/tools/gcc-arm-none-eabi-10.3-2021.10/bin/../lib/gcc/arm-none-eabi/10.3.1/../../../../arm-none-eabi/lib/thumb/v7e-m+fp/hard\libg_nano.a(lib_a-nano-msizer.o)
 .text          0x00000000        0x0 d:/at32ide/platform/tools/gcc-arm-none-eabi-10.3-2021.10/bin/../lib/gcc/arm-none-eabi/10.3.1/../../../../arm-none-eabi/lib/thumb/v7e-m+fp/hard\libg_nano.a(lib_a-signal.o)
 .data          0x00000000        0x0 d:/at32ide/platform/tools/gcc-arm-none-eabi-10.3-2021.10/bin/../lib/gcc/arm-none-eabi/10.3.1/../../../../arm-none-eabi/lib/thumb/v7e-m+fp/hard\libg_nano.a(lib_a-signal.o)
 .bss           0x00000000        0x0 d:/at32ide/platform/tools/gcc-arm-none-eabi-10.3-2021.10/bin/../lib/gcc/arm-none-eabi/10.3.1/../../../../arm-none-eabi/lib/thumb/v7e-m+fp/hard\libg_nano.a(lib_a-signal.o)
 .text._init_signal_r
                0x00000000       0x28 d:/at32ide/platform/tools/gcc-arm-none-eabi-10.3-2021.10/bin/../lib/gcc/arm-none-eabi/10.3.1/../../../../arm-none-eabi/lib/thumb/v7e-m+fp/hard\libg_nano.a(lib_a-signal.o)
 .text._signal_r
                0x00000000       0x30 d:/at32ide/platform/tools/gcc-arm-none-eabi-10.3-2021.10/bin/../lib/gcc/arm-none-eabi/10.3.1/../../../../arm-none-eabi/lib/thumb/v7e-m+fp/hard\libg_nano.a(lib_a-signal.o)
 .text.__sigtramp_r
                0x00000000       0x48 d:/at32ide/platform/tools/gcc-arm-none-eabi-10.3-2021.10/bin/../lib/gcc/arm-none-eabi/10.3.1/../../../../arm-none-eabi/lib/thumb/v7e-m+fp/hard\libg_nano.a(lib_a-signal.o)
 .text.signal   0x00000000       0x10 d:/at32ide/platform/tools/gcc-arm-none-eabi-10.3-2021.10/bin/../lib/gcc/arm-none-eabi/10.3.1/../../../../arm-none-eabi/lib/thumb/v7e-m+fp/hard\libg_nano.a(lib_a-signal.o)
 .text._init_signal
                0x00000000        0xc d:/at32ide/platform/tools/gcc-arm-none-eabi-10.3-2021.10/bin/../lib/gcc/arm-none-eabi/10.3.1/../../../../arm-none-eabi/lib/thumb/v7e-m+fp/hard\libg_nano.a(lib_a-signal.o)
 .text.__sigtramp
                0x00000000       0x10 d:/at32ide/platform/tools/gcc-arm-none-eabi-10.3-2021.10/bin/../lib/gcc/arm-none-eabi/10.3.1/../../../../arm-none-eabi/lib/thumb/v7e-m+fp/hard\libg_nano.a(lib_a-signal.o)
 .text          0x00000000        0x0 d:/at32ide/platform/tools/gcc-arm-none-eabi-10.3-2021.10/bin/../lib/gcc/arm-none-eabi/10.3.1/../../../../arm-none-eabi/lib/thumb/v7e-m+fp/hard\libg_nano.a(lib_a-signalr.o)
 .data          0x00000000        0x0 d:/at32ide/platform/tools/gcc-arm-none-eabi-10.3-2021.10/bin/../lib/gcc/arm-none-eabi/10.3.1/../../../../arm-none-eabi/lib/thumb/v7e-m+fp/hard\libg_nano.a(lib_a-signalr.o)
 .bss           0x00000000        0x0 d:/at32ide/platform/tools/gcc-arm-none-eabi-10.3-2021.10/bin/../lib/gcc/arm-none-eabi/10.3.1/../../../../arm-none-eabi/lib/thumb/v7e-m+fp/hard\libg_nano.a(lib_a-signalr.o)
 .data          0x00000000        0x0 d:/at32ide/platform/tools/gcc-arm-none-eabi-10.3-2021.10/bin/../lib/gcc/arm-none-eabi/10.3.1/thumb/v7e-m+fp/hard\libgcc.a(_arm_cmpdf2.o)
 .bss           0x00000000        0x0 d:/at32ide/platform/tools/gcc-arm-none-eabi-10.3-2021.10/bin/../lib/gcc/arm-none-eabi/10.3.1/thumb/v7e-m+fp/hard\libgcc.a(_arm_cmpdf2.o)
 .data          0x00000000        0x0 d:/at32ide/platform/tools/gcc-arm-none-eabi-10.3-2021.10/bin/../lib/gcc/arm-none-eabi/10.3.1/thumb/v7e-m+fp/hard\libgcc.a(_arm_unorddf2.o)
 .bss           0x00000000        0x0 d:/at32ide/platform/tools/gcc-arm-none-eabi-10.3-2021.10/bin/../lib/gcc/arm-none-eabi/10.3.1/thumb/v7e-m+fp/hard\libgcc.a(_arm_unorddf2.o)
 .data          0x00000000        0x0 d:/at32ide/platform/tools/gcc-arm-none-eabi-10.3-2021.10/bin/../lib/gcc/arm-none-eabi/10.3.1/thumb/v7e-m+fp/hard\libgcc.a(_arm_fixdfsi.o)
 .bss           0x00000000        0x0 d:/at32ide/platform/tools/gcc-arm-none-eabi-10.3-2021.10/bin/../lib/gcc/arm-none-eabi/10.3.1/thumb/v7e-m+fp/hard\libgcc.a(_arm_fixdfsi.o)
 .text          0x00000000        0x0 d:/at32ide/platform/tools/gcc-arm-none-eabi-10.3-2021.10/bin/../lib/gcc/arm-none-eabi/10.3.1/../../../../arm-none-eabi/lib/thumb/v7e-m+fp/hard\libnosys.a(close.o)
 .data          0x00000000        0x0 d:/at32ide/platform/tools/gcc-arm-none-eabi-10.3-2021.10/bin/../lib/gcc/arm-none-eabi/10.3.1/../../../../arm-none-eabi/lib/thumb/v7e-m+fp/hard\libnosys.a(close.o)
 .bss           0x00000000        0x0 d:/at32ide/platform/tools/gcc-arm-none-eabi-10.3-2021.10/bin/../lib/gcc/arm-none-eabi/10.3.1/../../../../arm-none-eabi/lib/thumb/v7e-m+fp/hard\libnosys.a(close.o)
 .text          0x00000000        0x0 d:/at32ide/platform/tools/gcc-arm-none-eabi-10.3-2021.10/bin/../lib/gcc/arm-none-eabi/10.3.1/../../../../arm-none-eabi/lib/thumb/v7e-m+fp/hard\libnosys.a(fstat.o)
 .data          0x00000000        0x0 d:/at32ide/platform/tools/gcc-arm-none-eabi-10.3-2021.10/bin/../lib/gcc/arm-none-eabi/10.3.1/../../../../arm-none-eabi/lib/thumb/v7e-m+fp/hard\libnosys.a(fstat.o)
 .bss           0x00000000        0x0 d:/at32ide/platform/tools/gcc-arm-none-eabi-10.3-2021.10/bin/../lib/gcc/arm-none-eabi/10.3.1/../../../../arm-none-eabi/lib/thumb/v7e-m+fp/hard\libnosys.a(fstat.o)
 .text          0x00000000        0x0 d:/at32ide/platform/tools/gcc-arm-none-eabi-10.3-2021.10/bin/../lib/gcc/arm-none-eabi/10.3.1/../../../../arm-none-eabi/lib/thumb/v7e-m+fp/hard\libnosys.a(getpid.o)
 .data          0x00000000        0x0 d:/at32ide/platform/tools/gcc-arm-none-eabi-10.3-2021.10/bin/../lib/gcc/arm-none-eabi/10.3.1/../../../../arm-none-eabi/lib/thumb/v7e-m+fp/hard\libnosys.a(getpid.o)
 .bss           0x00000000        0x0 d:/at32ide/platform/tools/gcc-arm-none-eabi-10.3-2021.10/bin/../lib/gcc/arm-none-eabi/10.3.1/../../../../arm-none-eabi/lib/thumb/v7e-m+fp/hard\libnosys.a(getpid.o)
 .text          0x00000000        0x0 d:/at32ide/platform/tools/gcc-arm-none-eabi-10.3-2021.10/bin/../lib/gcc/arm-none-eabi/10.3.1/../../../../arm-none-eabi/lib/thumb/v7e-m+fp/hard\libnosys.a(isatty.o)
 .data          0x00000000        0x0 d:/at32ide/platform/tools/gcc-arm-none-eabi-10.3-2021.10/bin/../lib/gcc/arm-none-eabi/10.3.1/../../../../arm-none-eabi/lib/thumb/v7e-m+fp/hard\libnosys.a(isatty.o)
 .bss           0x00000000        0x0 d:/at32ide/platform/tools/gcc-arm-none-eabi-10.3-2021.10/bin/../lib/gcc/arm-none-eabi/10.3.1/../../../../arm-none-eabi/lib/thumb/v7e-m+fp/hard\libnosys.a(isatty.o)
 .text          0x00000000        0x0 d:/at32ide/platform/tools/gcc-arm-none-eabi-10.3-2021.10/bin/../lib/gcc/arm-none-eabi/10.3.1/../../../../arm-none-eabi/lib/thumb/v7e-m+fp/hard\libnosys.a(kill.o)
 .data          0x00000000        0x0 d:/at32ide/platform/tools/gcc-arm-none-eabi-10.3-2021.10/bin/../lib/gcc/arm-none-eabi/10.3.1/../../../../arm-none-eabi/lib/thumb/v7e-m+fp/hard\libnosys.a(kill.o)
 .bss           0x00000000        0x0 d:/at32ide/platform/tools/gcc-arm-none-eabi-10.3-2021.10/bin/../lib/gcc/arm-none-eabi/10.3.1/../../../../arm-none-eabi/lib/thumb/v7e-m+fp/hard\libnosys.a(kill.o)
 .text          0x00000000        0x0 d:/at32ide/platform/tools/gcc-arm-none-eabi-10.3-2021.10/bin/../lib/gcc/arm-none-eabi/10.3.1/../../../../arm-none-eabi/lib/thumb/v7e-m+fp/hard\libnosys.a(lseek.o)
 .data          0x00000000        0x0 d:/at32ide/platform/tools/gcc-arm-none-eabi-10.3-2021.10/bin/../lib/gcc/arm-none-eabi/10.3.1/../../../../arm-none-eabi/lib/thumb/v7e-m+fp/hard\libnosys.a(lseek.o)
 .bss           0x00000000        0x0 d:/at32ide/platform/tools/gcc-arm-none-eabi-10.3-2021.10/bin/../lib/gcc/arm-none-eabi/10.3.1/../../../../arm-none-eabi/lib/thumb/v7e-m+fp/hard\libnosys.a(lseek.o)
 .text          0x00000000        0x0 d:/at32ide/platform/tools/gcc-arm-none-eabi-10.3-2021.10/bin/../lib/gcc/arm-none-eabi/10.3.1/../../../../arm-none-eabi/lib/thumb/v7e-m+fp/hard\libnosys.a(read.o)
 .data          0x00000000        0x0 d:/at32ide/platform/tools/gcc-arm-none-eabi-10.3-2021.10/bin/../lib/gcc/arm-none-eabi/10.3.1/../../../../arm-none-eabi/lib/thumb/v7e-m+fp/hard\libnosys.a(read.o)
 .bss           0x00000000        0x0 d:/at32ide/platform/tools/gcc-arm-none-eabi-10.3-2021.10/bin/../lib/gcc/arm-none-eabi/10.3.1/../../../../arm-none-eabi/lib/thumb/v7e-m+fp/hard\libnosys.a(read.o)
 .text          0x00000000        0x0 d:/at32ide/platform/tools/gcc-arm-none-eabi-10.3-2021.10/bin/../lib/gcc/arm-none-eabi/10.3.1/../../../../arm-none-eabi/lib/thumb/v7e-m+fp/hard\libnosys.a(sbrk.o)
 .data          0x00000000        0x0 d:/at32ide/platform/tools/gcc-arm-none-eabi-10.3-2021.10/bin/../lib/gcc/arm-none-eabi/10.3.1/../../../../arm-none-eabi/lib/thumb/v7e-m+fp/hard\libnosys.a(sbrk.o)
 .bss           0x00000000        0x0 d:/at32ide/platform/tools/gcc-arm-none-eabi-10.3-2021.10/bin/../lib/gcc/arm-none-eabi/10.3.1/../../../../arm-none-eabi/lib/thumb/v7e-m+fp/hard\libnosys.a(sbrk.o)
 .text          0x00000000        0x0 d:/at32ide/platform/tools/gcc-arm-none-eabi-10.3-2021.10/bin/../lib/gcc/arm-none-eabi/10.3.1/../../../../arm-none-eabi/lib/thumb/v7e-m+fp/hard\libnosys.a(_exit.o)
 .data          0x00000000        0x0 d:/at32ide/platform/tools/gcc-arm-none-eabi-10.3-2021.10/bin/../lib/gcc/arm-none-eabi/10.3.1/../../../../arm-none-eabi/lib/thumb/v7e-m+fp/hard\libnosys.a(_exit.o)
 .bss           0x00000000        0x0 d:/at32ide/platform/tools/gcc-arm-none-eabi-10.3-2021.10/bin/../lib/gcc/arm-none-eabi/10.3.1/../../../../arm-none-eabi/lib/thumb/v7e-m+fp/hard\libnosys.a(_exit.o)
 .text          0x00000000        0x0 d:/at32ide/platform/tools/gcc-arm-none-eabi-10.3-2021.10/bin/../lib/gcc/arm-none-eabi/10.3.1/thumb/v7e-m+fp/hard/crtend.o
 .data          0x00000000        0x0 d:/at32ide/platform/tools/gcc-arm-none-eabi-10.3-2021.10/bin/../lib/gcc/arm-none-eabi/10.3.1/thumb/v7e-m+fp/hard/crtend.o
 .bss           0x00000000        0x0 d:/at32ide/platform/tools/gcc-arm-none-eabi-10.3-2021.10/bin/../lib/gcc/arm-none-eabi/10.3.1/thumb/v7e-m+fp/hard/crtend.o
 .rodata        0x00000000       0x24 d:/at32ide/platform/tools/gcc-arm-none-eabi-10.3-2021.10/bin/../lib/gcc/arm-none-eabi/10.3.1/thumb/v7e-m+fp/hard/crtend.o
 .eh_frame      0x00000000        0x4 d:/at32ide/platform/tools/gcc-arm-none-eabi-10.3-2021.10/bin/../lib/gcc/arm-none-eabi/10.3.1/thumb/v7e-m+fp/hard/crtend.o
 .ARM.attributes
                0x00000000       0x34 d:/at32ide/platform/tools/gcc-arm-none-eabi-10.3-2021.10/bin/../lib/gcc/arm-none-eabi/10.3.1/thumb/v7e-m+fp/hard/crtend.o
 .text          0x00000000        0x0 d:/at32ide/platform/tools/gcc-arm-none-eabi-10.3-2021.10/bin/../lib/gcc/arm-none-eabi/10.3.1/thumb/v7e-m+fp/hard/crtn.o
 .data          0x00000000        0x0 d:/at32ide/platform/tools/gcc-arm-none-eabi-10.3-2021.10/bin/../lib/gcc/arm-none-eabi/10.3.1/thumb/v7e-m+fp/hard/crtn.o
 .bss           0x00000000        0x0 d:/at32ide/platform/tools/gcc-arm-none-eabi-10.3-2021.10/bin/../lib/gcc/arm-none-eabi/10.3.1/thumb/v7e-m+fp/hard/crtn.o

Memory Configuration

Name             Origin             Length             Attributes
FLASH            0x08000000         0x00100000         xr
RAM              0x20000000         0x00018000         xrw
SPIM             0x08400000         0x01000000         xr
*default*        0x00000000         0xffffffff

Linker script and memory map

LOAD d:/at32ide/platform/tools/gcc-arm-none-eabi-10.3-2021.10/bin/../lib/gcc/arm-none-eabi/10.3.1/thumb/v7e-m+fp/hard/crti.o
LOAD d:/at32ide/platform/tools/gcc-arm-none-eabi-10.3-2021.10/bin/../lib/gcc/arm-none-eabi/10.3.1/thumb/v7e-m+fp/hard/crtbegin.o
LOAD d:/at32ide/platform/tools/gcc-arm-none-eabi-10.3-2021.10/bin/../lib/gcc/arm-none-eabi/10.3.1/../../../../arm-none-eabi/lib/thumb/v7e-m+fp/hard/crt0.o
LOAD ./user/at32f403a_407_clock.o
LOAD ./user/at32f403a_407_int.o
LOAD ./user/main.o
LOAD ./firmware/at32f403a_407_acc.o
LOAD ./firmware/at32f403a_407_adc.o
LOAD ./firmware/at32f403a_407_bpr.o
LOAD ./firmware/at32f403a_407_can.o
LOAD ./firmware/at32f403a_407_crc.o
LOAD ./firmware/at32f403a_407_crm.o
LOAD ./firmware/at32f403a_407_dac.o
LOAD ./firmware/at32f403a_407_debug.o
LOAD ./firmware/at32f403a_407_dma.o
LOAD ./firmware/at32f403a_407_emac.o
LOAD ./firmware/at32f403a_407_exint.o
LOAD ./firmware/at32f403a_407_flash.o
LOAD ./firmware/at32f403a_407_gpio.o
LOAD ./firmware/at32f403a_407_i2c.o
LOAD ./firmware/at32f403a_407_misc.o
LOAD ./firmware/at32f403a_407_pwc.o
LOAD ./firmware/at32f403a_407_rtc.o
LOAD ./firmware/at32f403a_407_sdio.o
LOAD ./firmware/at32f403a_407_spi.o
LOAD ./firmware/at32f403a_407_tmr.o
LOAD ./firmware/at32f403a_407_usart.o
LOAD ./firmware/at32f403a_407_usb.o
LOAD ./firmware/at32f403a_407_wdt.o
LOAD ./firmware/at32f403a_407_wwdt.o
LOAD ./firmware/at32f403a_407_xmc.o
LOAD ./cmsis/startup_at32f403a_407.o
LOAD ./cmsis/system_at32f403a_407.o
LOAD ./bsp/at32f403a_407_board.o
START GROUP
LOAD d:/at32ide/platform/tools/gcc-arm-none-eabi-10.3-2021.10/bin/../lib/gcc/arm-none-eabi/10.3.1/thumb/v7e-m+fp/hard\libgcc.a
LOAD d:/at32ide/platform/tools/gcc-arm-none-eabi-10.3-2021.10/bin/../lib/gcc/arm-none-eabi/10.3.1/../../../../arm-none-eabi/lib/thumb/v7e-m+fp/hard\libg_nano.a
LOAD d:/at32ide/platform/tools/gcc-arm-none-eabi-10.3-2021.10/bin/../lib/gcc/arm-none-eabi/10.3.1/../../../../arm-none-eabi/lib/thumb/v7e-m+fp/hard\libc_nano.a
END GROUP
START GROUP
LOAD d:/at32ide/platform/tools/gcc-arm-none-eabi-10.3-2021.10/bin/../lib/gcc/arm-none-eabi/10.3.1/thumb/v7e-m+fp/hard\libgcc.a
LOAD d:/at32ide/platform/tools/gcc-arm-none-eabi-10.3-2021.10/bin/../lib/gcc/arm-none-eabi/10.3.1/../../../../arm-none-eabi/lib/thumb/v7e-m+fp/hard\libc_nano.a
LOAD d:/at32ide/platform/tools/gcc-arm-none-eabi-10.3-2021.10/bin/../lib/gcc/arm-none-eabi/10.3.1/../../../../arm-none-eabi/lib/thumb/v7e-m+fp/hard\libnosys.a
END GROUP
START GROUP
LOAD d:/at32ide/platform/tools/gcc-arm-none-eabi-10.3-2021.10/bin/../lib/gcc/arm-none-eabi/10.3.1/thumb/v7e-m+fp/hard\libgcc.a
LOAD d:/at32ide/platform/tools/gcc-arm-none-eabi-10.3-2021.10/bin/../lib/gcc/arm-none-eabi/10.3.1/../../../../arm-none-eabi/lib/thumb/v7e-m+fp/hard\libc_nano.a
LOAD d:/at32ide/platform/tools/gcc-arm-none-eabi-10.3-2021.10/bin/../lib/gcc/arm-none-eabi/10.3.1/../../../../arm-none-eabi/lib/thumb/v7e-m+fp/hard\libnosys.a
END GROUP
LOAD d:/at32ide/platform/tools/gcc-arm-none-eabi-10.3-2021.10/bin/../lib/gcc/arm-none-eabi/10.3.1/thumb/v7e-m+fp/hard/crtend.o
LOAD d:/at32ide/platform/tools/gcc-arm-none-eabi-10.3-2021.10/bin/../lib/gcc/arm-none-eabi/10.3.1/thumb/v7e-m+fp/hard/crtn.o
                0x20018000                _estack = 0x20018000
                0x00000200                _Min_Heap_Size = 0x200
                0x00000400                _Min_Stack_Size = 0x400

.isr_vector     0x08000000      0x184
                0x08000000                . = ALIGN (0x4)
 *(.isr_vector)
 .isr_vector    0x08000000      0x184 ./cmsis/startup_at32f403a_407.o
                0x08000000                g_pfnVectors
                0x08000184                . = ALIGN (0x4)

.text           0x08000190     0x512c
                0x08000190                . = ALIGN (0x4)
 *(.text)
 .text          0x08000190       0x40 d:/at32ide/platform/tools/gcc-arm-none-eabi-10.3-2021.10/bin/../lib/gcc/arm-none-eabi/10.3.1/thumb/v7e-m+fp/hard/crtbegin.o
 .text          0x080001d0      0x378 d:/at32ide/platform/tools/gcc-arm-none-eabi-10.3-2021.10/bin/../lib/gcc/arm-none-eabi/10.3.1/thumb/v7e-m+fp/hard\libgcc.a(_arm_addsubdf3.o)
                0x080001d0                __aeabi_drsub
                0x080001d8                __aeabi_dsub
                0x080001d8                __subdf3
                0x080001dc                __aeabi_dadd
                0x080001dc                __adddf3
                0x08000454                __floatunsidf
                0x08000454                __aeabi_ui2d
                0x08000474                __floatsidf
                0x08000474                __aeabi_i2d
                0x08000498                __aeabi_f2d
                0x08000498                __extendsfdf2
                0x080004dc                __floatundidf
                0x080004dc                __aeabi_ul2d
                0x080004ec                __floatdidf
                0x080004ec                __aeabi_l2d
 .text          0x08000548      0x424 d:/at32ide/platform/tools/gcc-arm-none-eabi-10.3-2021.10/bin/../lib/gcc/arm-none-eabi/10.3.1/thumb/v7e-m+fp/hard\libgcc.a(_arm_muldivdf3.o)
                0x08000548                __aeabi_dmul
                0x08000548                __muldf3
                0x0800079c                __divdf3
                0x0800079c                __aeabi_ddiv
 .text          0x0800096c       0x10 d:/at32ide/platform/tools/gcc-arm-none-eabi-10.3-2021.10/bin/../lib/gcc/arm-none-eabi/10.3.1/../../../../arm-none-eabi/lib/thumb/v7e-m+fp/hard\libg_nano.a(lib_a-strlen.o)
                0x0800096c                strlen
 *fill*         0x0800097c        0x4 
 .text          0x08000980       0xa0 d:/at32ide/platform/tools/gcc-arm-none-eabi-10.3-2021.10/bin/../lib/gcc/arm-none-eabi/10.3.1/../../../../arm-none-eabi/lib/thumb/v7e-m+fp/hard\libg_nano.a(lib_a-memchr.o)
                0x08000980                memchr
 .text          0x08000a20      0x110 d:/at32ide/platform/tools/gcc-arm-none-eabi-10.3-2021.10/bin/../lib/gcc/arm-none-eabi/10.3.1/thumb/v7e-m+fp/hard\libgcc.a(_arm_cmpdf2.o)
                0x08000a20                __gtdf2
                0x08000a20                __gedf2
                0x08000a28                __ltdf2
                0x08000a28                __ledf2
                0x08000a30                __nedf2
                0x08000a30                __eqdf2
                0x08000a30                __cmpdf2
                0x08000aac                __aeabi_cdrcmple
                0x08000abc                __aeabi_cdcmpeq
                0x08000abc                __aeabi_cdcmple
                0x08000acc                __aeabi_dcmpeq
                0x08000ae0                __aeabi_dcmplt
                0x08000af4                __aeabi_dcmple
                0x08000b08                __aeabi_dcmpge
                0x08000b1c                __aeabi_dcmpgt
 .text          0x08000b30       0x2c d:/at32ide/platform/tools/gcc-arm-none-eabi-10.3-2021.10/bin/../lib/gcc/arm-none-eabi/10.3.1/thumb/v7e-m+fp/hard\libgcc.a(_arm_unorddf2.o)
                0x08000b30                __unorddf2
                0x08000b30                __aeabi_dcmpun
 .text          0x08000b5c       0x50 d:/at32ide/platform/tools/gcc-arm-none-eabi-10.3-2021.10/bin/../lib/gcc/arm-none-eabi/10.3.1/thumb/v7e-m+fp/hard\libgcc.a(_arm_fixdfsi.o)
                0x08000b5c                __aeabi_d2iz
                0x08000b5c                __fixdfsi
 *(.text*)
 .text.system_clock_config
                0x08000bac       0x7a ./user/at32f403a_407_clock.o
                0x08000bac                system_clock_config
 .text.NMI_Handler
                0x08000c26        0xe ./user/at32f403a_407_int.o
                0x08000c26                NMI_Handler
 .text.HardFault_Handler
                0x08000c34        0x6 ./user/at32f403a_407_int.o
                0x08000c34                HardFault_Handler
 .text.MemManage_Handler
                0x08000c3a        0x6 ./user/at32f403a_407_int.o
                0x08000c3a                MemManage_Handler
 .text.BusFault_Handler
                0x08000c40        0x6 ./user/at32f403a_407_int.o
                0x08000c40                BusFault_Handler
 .text.UsageFault_Handler
                0x08000c46        0x6 ./user/at32f403a_407_int.o
                0x08000c46                UsageFault_Handler
 .text.SVC_Handler
                0x08000c4c        0xe ./user/at32f403a_407_int.o
                0x08000c4c                SVC_Handler
 .text.DebugMon_Handler
                0x08000c5a        0xe ./user/at32f403a_407_int.o
                0x08000c5a                DebugMon_Handler
 .text.PendSV_Handler
                0x08000c68        0xe ./user/at32f403a_407_int.o
                0x08000c68                PendSV_Handler
 .text.SysTick_Handler
                0x08000c76        0xe ./user/at32f403a_407_int.o
                0x08000c76                SysTick_Handler
 .text.button_isr
                0x08000c84       0x40 ./user/main.o
                0x08000c84                button_isr
 .text.EXINT0_IRQHandler
                0x08000cc4        0xc ./user/main.o
                0x08000cc4                EXINT0_IRQHandler
 .text.USART1_config
                0x08000cd0       0x78 ./user/main.o
 .text.DMA1_config
                0x08000d48       0xc4 ./user/main.o
 .text.ADC1_config
                0x08000e0c       0xb0 ./user/main.o
 *fill*         0x08000ebc        0x4 
 .text.main     0x08000ec0      0x150 ./user/main.o
                0x08000ec0                main
 .text.adc_reset
                0x08001010       0x74 ./firmware/at32f403a_407_adc.o
                0x08001010                adc_reset
 .text.adc_enable
                0x08001084       0x2a ./firmware/at32f403a_407_adc.o
                0x08001084                adc_enable
 *fill*         0x080010ae        0x2 
 .text.adc_combine_mode_select
                0x080010b0       0x2c ./firmware/at32f403a_407_adc.o
                0x080010b0                adc_combine_mode_select
 .text.adc_base_default_para_init
                0x080010dc       0x2c ./firmware/at32f403a_407_adc.o
                0x080010dc                adc_base_default_para_init
 .text.adc_base_config
                0x08001108       0x6a ./firmware/at32f403a_407_adc.o
                0x08001108                adc_base_config
 .text.adc_dma_mode_enable
                0x08001172       0x2a ./firmware/at32f403a_407_adc.o
                0x08001172                adc_dma_mode_enable
 .text.adc_calibration_init
                0x0800119c       0x1e ./firmware/at32f403a_407_adc.o
                0x0800119c                adc_calibration_init
 .text.adc_calibration_init_status_get
                0x080011ba       0x28 ./firmware/at32f403a_407_adc.o
                0x080011ba                adc_calibration_init_status_get
 .text.adc_calibration_start
                0x080011e2       0x1e ./firmware/at32f403a_407_adc.o
                0x080011e2                adc_calibration_start
 .text.adc_calibration_status_get
                0x08001200       0x28 ./firmware/at32f403a_407_adc.o
                0x08001200                adc_calibration_status_get
 .text.adc_ordinary_channel_set
                0x08001228      0x178 ./firmware/at32f403a_407_adc.o
                0x08001228                adc_ordinary_channel_set
 .text.adc_ordinary_conversion_trigger_set
                0x080013a0       0x6e ./firmware/at32f403a_407_adc.o
                0x080013a0                adc_ordinary_conversion_trigger_set
 *fill*         0x0800140e        0x2 
 .text.adc_tempersensor_vintrv_enable
                0x08001410       0x2c ./firmware/at32f403a_407_adc.o
                0x08001410                adc_tempersensor_vintrv_enable
 .text.adc_ordinary_software_trigger_enable
                0x0800143c       0x2a ./firmware/at32f403a_407_adc.o
                0x0800143c                adc_ordinary_software_trigger_enable
 *fill*         0x08001466        0x2 
 .text.crm_reset
                0x08001468       0x6c ./firmware/at32f403a_407_crm.o
                0x08001468                crm_reset
 .text.crm_flag_get
                0x080014d4       0x50 ./firmware/at32f403a_407_crm.o
                0x080014d4                crm_flag_get
 .text.crm_hext_stable_wait
                0x08001524       0x4a ./firmware/at32f403a_407_crm.o
                0x08001524                crm_hext_stable_wait
 .text.crm_periph_clock_enable
                0x0800156e       0x7c ./firmware/at32f403a_407_crm.o
                0x0800156e                crm_periph_clock_enable
 .text.crm_periph_reset
                0x080015ea       0x7c ./firmware/at32f403a_407_crm.o
                0x080015ea                crm_periph_reset
 *fill*         0x08001666        0x2 
 .text.crm_clock_source_enable
                0x08001668       0xa8 ./firmware/at32f403a_407_crm.o
                0x08001668                crm_clock_source_enable
 .text.crm_ahb_div_set
                0x08001710       0x2c ./firmware/at32f403a_407_crm.o
                0x08001710                crm_ahb_div_set
 .text.crm_apb1_div_set
                0x0800173c       0x2c ./firmware/at32f403a_407_crm.o
                0x0800173c                crm_apb1_div_set
 .text.crm_apb2_div_set
                0x08001768       0x2c ./firmware/at32f403a_407_crm.o
                0x08001768                crm_apb2_div_set
 .text.crm_adc_clock_div_set
                0x08001794       0x44 ./firmware/at32f403a_407_crm.o
                0x08001794                crm_adc_clock_div_set
 .text.crm_pll_config
                0x080017d8       0x9c ./firmware/at32f403a_407_crm.o
                0x080017d8                crm_pll_config
 .text.crm_sysclk_switch
                0x08001874       0x2c ./firmware/at32f403a_407_crm.o
                0x08001874                crm_sysclk_switch
 .text.crm_sysclk_switch_status_get
                0x080018a0       0x1c ./firmware/at32f403a_407_crm.o
                0x080018a0                crm_sysclk_switch_status_get
 .text.crm_clocks_freq_get
                0x080018bc      0x1d4 ./firmware/at32f403a_407_crm.o
                0x080018bc                crm_clocks_freq_get
 .text.crm_auto_step_mode_enable
                0x08001a90       0x38 ./firmware/at32f403a_407_crm.o
                0x08001a90                crm_auto_step_mode_enable
 .text.crm_hext_clock_div_set
                0x08001ac8       0x2c ./firmware/at32f403a_407_crm.o
                0x08001ac8                crm_hext_clock_div_set
 .text.dma_reset
                0x08001af4       0xac ./firmware/at32f403a_407_dma.o
                0x08001af4                dma_reset
 .text.dma_channel_enable
                0x08001ba0       0x2a ./firmware/at32f403a_407_dma.o
                0x08001ba0                dma_channel_enable
 *fill*         0x08001bca        0x2 
 .text.dma_flag_get
                0x08001bcc       0x50 ./firmware/at32f403a_407_dma.o
                0x08001bcc                dma_flag_get
 .text.dma_flag_clear
                0x08001c1c       0x38 ./firmware/at32f403a_407_dma.o
                0x08001c1c                dma_flag_clear
 .text.dma_default_para_init
                0x08001c54       0x50 ./firmware/at32f403a_407_dma.o
                0x08001c54                dma_default_para_init
 .text.dma_init
                0x08001ca4       0xc4 ./firmware/at32f403a_407_dma.o
                0x08001ca4                dma_init
 .text.exint_flag_clear
                0x08001d68       0x3c ./firmware/at32f403a_407_exint.o
                0x08001d68                exint_flag_clear
 .text.gpio_init
                0x08001da4      0x138 ./firmware/at32f403a_407_gpio.o
                0x08001da4                gpio_init
 .text.gpio_default_para_init
                0x08001edc       0x34 ./firmware/at32f403a_407_gpio.o
                0x08001edc                gpio_default_para_init
 .text.gpio_input_data_bit_read
                0x08001f10       0x36 ./firmware/at32f403a_407_gpio.o
                0x08001f10                gpio_input_data_bit_read
 *fill*         0x08001f46        0x2 
 .text.__NVIC_SetPriorityGrouping
                0x08001f48       0x48 ./firmware/at32f403a_407_misc.o
 .text.nvic_priority_group_config
                0x08001f90       0x1a ./firmware/at32f403a_407_misc.o
                0x08001f90                nvic_priority_group_config
 *fill*         0x08001faa        0x2 
 .text.systick_clock_source_config
                0x08001fac       0x3c ./firmware/at32f403a_407_misc.o
                0x08001fac                systick_clock_source_config
 .text.usart_init
                0x08001fe8       0xe0 ./firmware/at32f403a_407_usart.o
                0x08001fe8                usart_init
 .text.usart_enable
                0x080020c8       0x2a ./firmware/at32f403a_407_usart.o
                0x080020c8                usart_enable
 .text.usart_transmitter_enable
                0x080020f2       0x2a ./firmware/at32f403a_407_usart.o
                0x080020f2                usart_transmitter_enable
 .text.usart_data_transmit
                0x0800211c       0x22 ./firmware/at32f403a_407_usart.o
                0x0800211c                usart_data_transmit
 .text.usart_flag_get
                0x0800213e       0x28 ./firmware/at32f403a_407_usart.o
                0x0800213e                usart_flag_get
 *fill*         0x08002166        0x2 
 .text.Reset_Handler
                0x08002168       0x48 ./cmsis/startup_at32f403a_407.o
                0x08002168                Reset_Handler
 .text.Default_Handler
                0x080021b0        0x2 ./cmsis/startup_at32f403a_407.o
                0x080021b0                SDIO1_IRQHandler
                0x080021b0                XMC_IRQHandler
                0x080021b0                EXINT2_IRQHandler
                0x080021b0                USBFS_L_CAN1_RX0_IRQHandler
                0x080021b0                UART8_IRQHandler
                0x080021b0                SPI4_IRQHandler
                0x080021b0                I2C2_EVT_IRQHandler
                0x080021b0                TMR1_OVF_TMR10_IRQHandler
                0x080021b0                TMR8_TRG_HALL_TMR14_IRQHandler
                0x080021b0                USBFS_H_CAN1_TX_IRQHandler
                0x080021b0                I2C1_ERR_IRQHandler
                0x080021b0                EXINT9_5_IRQHandler
                0x080021b0                EMAC_IRQHandler
                0x080021b0                CAN2_RX1_IRQHandler
                0x080021b0                TMR5_GLOBAL_IRQHandler
                0x080021b0                SDIO2_IRQHandler
                0x080021b0                ADC1_2_IRQHandler
                0x080021b0                SPI1_IRQHandler
                0x080021b0                TAMPER_IRQHandler
                0x080021b0                CAN2_RX0_IRQHandler
                0x080021b0                DMA2_Channel2_IRQHandler
                0x080021b0                DMA1_Channel4_IRQHandler
                0x080021b0                TMR8_CH_IRQHandler
                0x080021b0                USART6_IRQHandler
                0x080021b0                USART3_IRQHandler
                0x080021b0                RTC_IRQHandler
                0x080021b0                DMA1_Channel7_IRQHandler
                0x080021b0                CAN1_RX1_IRQHandler
                0x080021b0                UART5_IRQHandler
                0x080021b0                ADC3_IRQHandler
                0x080021b0                ACC_IRQHandler
                0x080021b0                EMAC_WKUP_IRQHandler
                0x080021b0                DMA2_Channel1_IRQHandler
                0x080021b0                EXINT3_IRQHandler
                0x080021b0                DMA1_Channel6_IRQHandler
                0x080021b0                UART4_IRQHandler
                0x080021b0                DMA1_Channel1_IRQHandler
                0x080021b0                Default_Handler
                0x080021b0                USBFS_MAPH_IRQHandler
                0x080021b0                TMR3_GLOBAL_IRQHandler
                0x080021b0                TMR7_GLOBAL_IRQHandler
                0x080021b0                CAN1_SE_IRQHandler
                0x080021b0                CAN2_TX_IRQHandler
                0x080021b0                I2C3_ERR_IRQHandler
                0x080021b0                SPI3_I2S3EXT_IRQHandler
                0x080021b0                TMR1_BRK_TMR9_IRQHandler
                0x080021b0                USBFS_MAPL_IRQHandler
                0x080021b0                TMR8_BRK_TMR12_IRQHandler
                0x080021b0                TMR1_TRG_HALL_TMR11_IRQHandler
                0x080021b0                DMA1_Channel5_IRQHandler
                0x080021b0                TMR4_GLOBAL_IRQHandler
                0x080021b0                EXINT4_IRQHandler
                0x080021b0                CAN2_SE_IRQHandler
                0x080021b0                DMA2_Channel6_7_IRQHandler
                0x080021b0                PVM_IRQHandler
                0x080021b0                I2C3_EVT_IRQHandler
                0x080021b0                DMA1_Channel3_IRQHandler
                0x080021b0                I2C1_EVT_IRQHandler
                0x080021b0                TMR8_OVF_TMR13_IRQHandler
                0x080021b0                TMR6_GLOBAL_IRQHandler
                0x080021b0                EXINT1_IRQHandler
                0x080021b0                RTCAlarm_IRQHandler
                0x080021b0                DMA2_Channel4_5_IRQHandler
                0x080021b0                UART7_IRQHandler
                0x080021b0                USART2_IRQHandler
                0x080021b0                DMA1_Channel2_IRQHandler
                0x080021b0                TMR2_GLOBAL_IRQHandler
                0x080021b0                FLASH_IRQHandler
                0x080021b0                SPI2_I2S2EXT_IRQHandler
                0x080021b0                I2C2_ERR_IRQHandler
                0x080021b0                USBFSWakeUp_IRQHandler
                0x080021b0                USART1_IRQHandler
                0x080021b0                TMR1_CH_IRQHandler
                0x080021b0                CRM_IRQHandler
                0x080021b0                EXINT15_10_IRQHandler
                0x080021b0                WWDT_IRQHandler
                0x080021b0                DMA2_Channel3_IRQHandler
 *fill*         0x080021b2        0x2 
 .text.SystemInit
                0x080021b4       0x88 ./cmsis/system_at32f403a_407.o
                0x080021b4                SystemInit
 .text.system_core_clock_update
                0x0800223c      0x150 ./cmsis/system_at32f403a_407.o
                0x0800223c                system_core_clock_update
 .text._write   0x0800238c       0x60 ./bsp/at32f403a_407_board.o
                0x0800238c                _write
 .text.at32_board_init
                0x080023ec       0x34 ./bsp/at32f403a_407_board.o
                0x080023ec                at32_board_init
 .text.at32_button_init
                0x08002420       0x44 ./bsp/at32f403a_407_board.o
                0x08002420                at32_button_init
 .text.at32_led_init
                0x08002464       0x68 ./bsp/at32f403a_407_board.o
                0x08002464                at32_led_init
 .text.at32_led_off
                0x080024cc       0x48 ./bsp/at32f403a_407_board.o
                0x080024cc                at32_led_off
 .text.at32_led_toggle
                0x08002514       0x54 ./bsp/at32f403a_407_board.o
                0x08002514                at32_led_toggle
 .text.delay_init
                0x08002568       0x40 ./bsp/at32f403a_407_board.o
                0x08002568                delay_init
 .text.delay_ms
                0x080025a8       0x98 ./bsp/at32f403a_407_board.o
                0x080025a8                delay_ms
 .text.delay_sec
                0x08002640       0x38 ./bsp/at32f403a_407_board.o
                0x08002640                delay_sec
 .text.__libc_init_array
                0x08002678       0x48 d:/at32ide/platform/tools/gcc-arm-none-eabi-10.3-2021.10/bin/../lib/gcc/arm-none-eabi/10.3.1/../../../../arm-none-eabi/lib/thumb/v7e-m+fp/hard\libg_nano.a(lib_a-init.o)
                0x08002678                __libc_init_array
 .text.memset   0x080026c0       0x10 d:/at32ide/platform/tools/gcc-arm-none-eabi-10.3-2021.10/bin/../lib/gcc/arm-none-eabi/10.3.1/../../../../arm-none-eabi/lib/thumb/v7e-m+fp/hard\libg_nano.a(lib_a-memset.o)
                0x080026c0                memset
 .text.__cvt    0x080026d0       0xc4 d:/at32ide/platform/tools/gcc-arm-none-eabi-10.3-2021.10/bin/../lib/gcc/arm-none-eabi/10.3.1/../../../../arm-none-eabi/lib/thumb/v7e-m+fp/hard\libg_nano.a(lib_a-nano-vfprintf_float.o)
                0x080026d0                __cvt
 .text.__exponent
                0x08002794       0x7c d:/at32ide/platform/tools/gcc-arm-none-eabi-10.3-2021.10/bin/../lib/gcc/arm-none-eabi/10.3.1/../../../../arm-none-eabi/lib/thumb/v7e-m+fp/hard\libg_nano.a(lib_a-nano-vfprintf_float.o)
                0x08002794                __exponent
 .text._printf_float
                0x08002810      0x46c d:/at32ide/platform/tools/gcc-arm-none-eabi-10.3-2021.10/bin/../lib/gcc/arm-none-eabi/10.3.1/../../../../arm-none-eabi/lib/thumb/v7e-m+fp/hard\libg_nano.a(lib_a-nano-vfprintf_float.o)
                0x08002810                _printf_float
 .text._printf_common
                0x08002c7c       0xda d:/at32ide/platform/tools/gcc-arm-none-eabi-10.3-2021.10/bin/../lib/gcc/arm-none-eabi/10.3.1/../../../../arm-none-eabi/lib/thumb/v7e-m+fp/hard\libg_nano.a(lib_a-nano-vfprintf_i.o)
                0x08002c7c                _printf_common
 *fill*         0x08002d56        0x2 
 .text._printf_i
                0x08002d58      0x24c d:/at32ide/platform/tools/gcc-arm-none-eabi-10.3-2021.10/bin/../lib/gcc/arm-none-eabi/10.3.1/../../../../arm-none-eabi/lib/thumb/v7e-m+fp/hard\libg_nano.a(lib_a-nano-vfprintf_i.o)
                0x08002d58                _printf_i
 .text.printf   0x08002fa4       0x30 d:/at32ide/platform/tools/gcc-arm-none-eabi-10.3-2021.10/bin/../lib/gcc/arm-none-eabi/10.3.1/../../../../arm-none-eabi/lib/thumb/v7e-m+fp/hard\libg_nano.a(lib_a-printf.o)
                0x08002fa4                iprintf
                0x08002fa4                printf
 .text._puts_r  0x08002fd4       0xdc d:/at32ide/platform/tools/gcc-arm-none-eabi-10.3-2021.10/bin/../lib/gcc/arm-none-eabi/10.3.1/../../../../arm-none-eabi/lib/thumb/v7e-m+fp/hard\libg_nano.a(lib_a-puts.o)
                0x08002fd4                _puts_r
 .text.puts     0x080030b0       0x10 d:/at32ide/platform/tools/gcc-arm-none-eabi-10.3-2021.10/bin/../lib/gcc/arm-none-eabi/10.3.1/../../../../arm-none-eabi/lib/thumb/v7e-m+fp/hard\libg_nano.a(lib_a-puts.o)
                0x080030b0                puts
 .text.__swbuf_r
                0x080030c0       0xa4 d:/at32ide/platform/tools/gcc-arm-none-eabi-10.3-2021.10/bin/../lib/gcc/arm-none-eabi/10.3.1/../../../../arm-none-eabi/lib/thumb/v7e-m+fp/hard\libg_nano.a(lib_a-wbuf.o)
                0x080030c0                __swbuf_r
 .text.__swsetup_r
                0x08003164       0xdc d:/at32ide/platform/tools/gcc-arm-none-eabi-10.3-2021.10/bin/../lib/gcc/arm-none-eabi/10.3.1/../../../../arm-none-eabi/lib/thumb/v7e-m+fp/hard\libg_nano.a(lib_a-wsetup.o)
                0x08003164                __swsetup_r
 .text.quorem   0x08003240      0x116 d:/at32ide/platform/tools/gcc-arm-none-eabi-10.3-2021.10/bin/../lib/gcc/arm-none-eabi/10.3.1/../../../../arm-none-eabi/lib/thumb/v7e-m+fp/hard\libg_nano.a(lib_a-dtoa.o)
 *fill*         0x08003356        0x2 
 .text._dtoa_r  0x08003358      0xbdc d:/at32ide/platform/tools/gcc-arm-none-eabi-10.3-2021.10/bin/../lib/gcc/arm-none-eabi/10.3.1/../../../../arm-none-eabi/lib/thumb/v7e-m+fp/hard\libg_nano.a(lib_a-dtoa.o)
                0x08003358                _dtoa_r
 .text.__sflush_r
                0x08003f34      0x10c d:/at32ide/platform/tools/gcc-arm-none-eabi-10.3-2021.10/bin/../lib/gcc/arm-none-eabi/10.3.1/../../../../arm-none-eabi/lib/thumb/v7e-m+fp/hard\libg_nano.a(lib_a-fflush.o)
                0x08003f34                __sflush_r
 .text._fflush_r
                0x08004040       0x78 d:/at32ide/platform/tools/gcc-arm-none-eabi-10.3-2021.10/bin/../lib/gcc/arm-none-eabi/10.3.1/../../../../arm-none-eabi/lib/thumb/v7e-m+fp/hard\libg_nano.a(lib_a-fflush.o)
                0x08004040                _fflush_r
 .text.std      0x080040b8       0x48 d:/at32ide/platform/tools/gcc-arm-none-eabi-10.3-2021.10/bin/../lib/gcc/arm-none-eabi/10.3.1/../../../../arm-none-eabi/lib/thumb/v7e-m+fp/hard\libg_nano.a(lib_a-findfp.o)
 .text._cleanup_r
                0x08004100        0xc d:/at32ide/platform/tools/gcc-arm-none-eabi-10.3-2021.10/bin/../lib/gcc/arm-none-eabi/10.3.1/../../../../arm-none-eabi/lib/thumb/v7e-m+fp/hard\libg_nano.a(lib_a-findfp.o)
                0x08004100                _cleanup_r
 .text.__sfmoreglue
                0x0800410c       0x2c d:/at32ide/platform/tools/gcc-arm-none-eabi-10.3-2021.10/bin/../lib/gcc/arm-none-eabi/10.3.1/../../../../arm-none-eabi/lib/thumb/v7e-m+fp/hard\libg_nano.a(lib_a-findfp.o)
                0x0800410c                __sfmoreglue
 .text.__sfp_lock_acquire
                0x08004138        0xc d:/at32ide/platform/tools/gcc-arm-none-eabi-10.3-2021.10/bin/../lib/gcc/arm-none-eabi/10.3.1/../../../../arm-none-eabi/lib/thumb/v7e-m+fp/hard\libg_nano.a(lib_a-findfp.o)
                0x08004138                __sfp_lock_acquire
 .text.__sfp_lock_release
                0x08004144        0xc d:/at32ide/platform/tools/gcc-arm-none-eabi-10.3-2021.10/bin/../lib/gcc/arm-none-eabi/10.3.1/../../../../arm-none-eabi/lib/thumb/v7e-m+fp/hard\libg_nano.a(lib_a-findfp.o)
                0x08004144                __sfp_lock_release
 .text.__sinit_lock_acquire
                0x08004150        0xc d:/at32ide/platform/tools/gcc-arm-none-eabi-10.3-2021.10/bin/../lib/gcc/arm-none-eabi/10.3.1/../../../../arm-none-eabi/lib/thumb/v7e-m+fp/hard\libg_nano.a(lib_a-findfp.o)
                0x08004150                __sinit_lock_acquire
 .text.__sinit_lock_release
                0x0800415c        0xc d:/at32ide/platform/tools/gcc-arm-none-eabi-10.3-2021.10/bin/../lib/gcc/arm-none-eabi/10.3.1/../../../../arm-none-eabi/lib/thumb/v7e-m+fp/hard\libg_nano.a(lib_a-findfp.o)
                0x0800415c                __sinit_lock_release
 .text.__sinit  0x08004168       0x70 d:/at32ide/platform/tools/gcc-arm-none-eabi-10.3-2021.10/bin/../lib/gcc/arm-none-eabi/10.3.1/../../../../arm-none-eabi/lib/thumb/v7e-m+fp/hard\libg_nano.a(lib_a-findfp.o)
                0x08004168                __sinit
 .text.__sfp    0x080041d8       0x8c d:/at32ide/platform/tools/gcc-arm-none-eabi-10.3-2021.10/bin/../lib/gcc/arm-none-eabi/10.3.1/../../../../arm-none-eabi/lib/thumb/v7e-m+fp/hard\libg_nano.a(lib_a-findfp.o)
                0x080041d8                __sfp
 .text._fwalk_reent
                0x08004264       0x3e d:/at32ide/platform/tools/gcc-arm-none-eabi-10.3-2021.10/bin/../lib/gcc/arm-none-eabi/10.3.1/../../../../arm-none-eabi/lib/thumb/v7e-m+fp/hard\libg_nano.a(lib_a-fwalk.o)
                0x08004264                _fwalk_reent
 *fill*         0x080042a2        0x2 
 .text._localeconv_r
                0x080042a4        0x8 d:/at32ide/platform/tools/gcc-arm-none-eabi-10.3-2021.10/bin/../lib/gcc/arm-none-eabi/10.3.1/../../../../arm-none-eabi/lib/thumb/v7e-m+fp/hard\libg_nano.a(lib_a-localeconv.o)
                0x080042a4                _localeconv_r
 .text.__retarget_lock_init_recursive
                0x080042ac        0x2 d:/at32ide/platform/tools/gcc-arm-none-eabi-10.3-2021.10/bin/../lib/gcc/arm-none-eabi/10.3.1/../../../../arm-none-eabi/lib/thumb/v7e-m+fp/hard\libg_nano.a(lib_a-lock.o)
                0x080042ac                __retarget_lock_init_recursive
 .text.__retarget_lock_acquire_recursive
                0x080042ae        0x2 d:/at32ide/platform/tools/gcc-arm-none-eabi-10.3-2021.10/bin/../lib/gcc/arm-none-eabi/10.3.1/../../../../arm-none-eabi/lib/thumb/v7e-m+fp/hard\libg_nano.a(lib_a-lock.o)
                0x080042ae                __retarget_lock_acquire_recursive
 .text.__retarget_lock_release_recursive
                0x080042b0        0x2 d:/at32ide/platform/tools/gcc-arm-none-eabi-10.3-2021.10/bin/../lib/gcc/arm-none-eabi/10.3.1/../../../../arm-none-eabi/lib/thumb/v7e-m+fp/hard\libg_nano.a(lib_a-lock.o)
                0x080042b0                __retarget_lock_release_recursive
 .text.__swhatbuf_r
                0x080042b2       0x4a d:/at32ide/platform/tools/gcc-arm-none-eabi-10.3-2021.10/bin/../lib/gcc/arm-none-eabi/10.3.1/../../../../arm-none-eabi/lib/thumb/v7e-m+fp/hard\libg_nano.a(lib_a-makebuf.o)
                0x080042b2                __swhatbuf_r
 .text.__smakebuf_r
                0x080042fc       0x80 d:/at32ide/platform/tools/gcc-arm-none-eabi-10.3-2021.10/bin/../lib/gcc/arm-none-eabi/10.3.1/../../../../arm-none-eabi/lib/thumb/v7e-m+fp/hard\libg_nano.a(lib_a-makebuf.o)
                0x080042fc                __smakebuf_r
 .text.malloc   0x0800437c       0x10 d:/at32ide/platform/tools/gcc-arm-none-eabi-10.3-2021.10/bin/../lib/gcc/arm-none-eabi/10.3.1/../../../../arm-none-eabi/lib/thumb/v7e-m+fp/hard\libg_nano.a(lib_a-malloc.o)
                0x0800437c                malloc
 .text.memcpy   0x0800438c       0x1c d:/at32ide/platform/tools/gcc-arm-none-eabi-10.3-2021.10/bin/../lib/gcc/arm-none-eabi/10.3.1/../../../../arm-none-eabi/lib/thumb/v7e-m+fp/hard\libg_nano.a(lib_a-memcpy-stub.o)
                0x0800438c                memcpy
 .text._Balloc  0x080043a8       0x80 d:/at32ide/platform/tools/gcc-arm-none-eabi-10.3-2021.10/bin/../lib/gcc/arm-none-eabi/10.3.1/../../../../arm-none-eabi/lib/thumb/v7e-m+fp/hard\libg_nano.a(lib_a-mprec.o)
                0x080043a8                _Balloc
 .text._Bfree   0x08004428       0x44 d:/at32ide/platform/tools/gcc-arm-none-eabi-10.3-2021.10/bin/../lib/gcc/arm-none-eabi/10.3.1/../../../../arm-none-eabi/lib/thumb/v7e-m+fp/hard\libg_nano.a(lib_a-mprec.o)
                0x08004428                _Bfree
 .text.__multadd
                0x0800446c       0x8c d:/at32ide/platform/tools/gcc-arm-none-eabi-10.3-2021.10/bin/../lib/gcc/arm-none-eabi/10.3.1/../../../../arm-none-eabi/lib/thumb/v7e-m+fp/hard\libg_nano.a(lib_a-mprec.o)
                0x0800446c                __multadd
 .text.__hi0bits
                0x080044f8       0x40 d:/at32ide/platform/tools/gcc-arm-none-eabi-10.3-2021.10/bin/../lib/gcc/arm-none-eabi/10.3.1/../../../../arm-none-eabi/lib/thumb/v7e-m+fp/hard\libg_nano.a(lib_a-mprec.o)
                0x080044f8                __hi0bits
 .text.__lo0bits
                0x08004538       0x5e d:/at32ide/platform/tools/gcc-arm-none-eabi-10.3-2021.10/bin/../lib/gcc/arm-none-eabi/10.3.1/../../../../arm-none-eabi/lib/thumb/v7e-m+fp/hard\libg_nano.a(lib_a-mprec.o)
                0x08004538                __lo0bits
 *fill*         0x08004596        0x2 
 .text.__i2b    0x08004598       0x2c d:/at32ide/platform/tools/gcc-arm-none-eabi-10.3-2021.10/bin/../lib/gcc/arm-none-eabi/10.3.1/../../../../arm-none-eabi/lib/thumb/v7e-m+fp/hard\libg_nano.a(lib_a-mprec.o)
                0x08004598                __i2b
 .text.__multiply
                0x080045c4      0x154 d:/at32ide/platform/tools/gcc-arm-none-eabi-10.3-2021.10/bin/../lib/gcc/arm-none-eabi/10.3.1/../../../../arm-none-eabi/lib/thumb/v7e-m+fp/hard\libg_nano.a(lib_a-mprec.o)
                0x080045c4                __multiply
 .text.__pow5mult
                0x08004718       0xb4 d:/at32ide/platform/tools/gcc-arm-none-eabi-10.3-2021.10/bin/../lib/gcc/arm-none-eabi/10.3.1/../../../../arm-none-eabi/lib/thumb/v7e-m+fp/hard\libg_nano.a(lib_a-mprec.o)
                0x08004718                __pow5mult
 .text.__lshift
                0x080047cc       0xe0 d:/at32ide/platform/tools/gcc-arm-none-eabi-10.3-2021.10/bin/../lib/gcc/arm-none-eabi/10.3.1/../../../../arm-none-eabi/lib/thumb/v7e-m+fp/hard\libg_nano.a(lib_a-mprec.o)
                0x080047cc                __lshift
 .text.__mcmp   0x080048ac       0x38 d:/at32ide/platform/tools/gcc-arm-none-eabi-10.3-2021.10/bin/../lib/gcc/arm-none-eabi/10.3.1/../../../../arm-none-eabi/lib/thumb/v7e-m+fp/hard\libg_nano.a(lib_a-mprec.o)
                0x080048ac                __mcmp
 .text.__mdiff  0x080048e4      0x114 d:/at32ide/platform/tools/gcc-arm-none-eabi-10.3-2021.10/bin/../lib/gcc/arm-none-eabi/10.3.1/../../../../arm-none-eabi/lib/thumb/v7e-m+fp/hard\libg_nano.a(lib_a-mprec.o)
                0x080048e4                __mdiff
 .text.__d2b    0x080049f8       0xb8 d:/at32ide/platform/tools/gcc-arm-none-eabi-10.3-2021.10/bin/../lib/gcc/arm-none-eabi/10.3.1/../../../../arm-none-eabi/lib/thumb/v7e-m+fp/hard\libg_nano.a(lib_a-mprec.o)
                0x080049f8                __d2b
 .text._calloc_r
                0x08004ab0       0x2c d:/at32ide/platform/tools/gcc-arm-none-eabi-10.3-2021.10/bin/../lib/gcc/arm-none-eabi/10.3.1/../../../../arm-none-eabi/lib/thumb/v7e-m+fp/hard\libg_nano.a(lib_a-nano-callocr.o)
                0x08004ab0                _calloc_r
 .text._free_r  0x08004adc       0x98 d:/at32ide/platform/tools/gcc-arm-none-eabi-10.3-2021.10/bin/../lib/gcc/arm-none-eabi/10.3.1/../../../../arm-none-eabi/lib/thumb/v7e-m+fp/hard\libg_nano.a(lib_a-nano-freer.o)
                0x08004adc                _free_r
 .text.sbrk_aligned
                0x08004b74       0x40 d:/at32ide/platform/tools/gcc-arm-none-eabi-10.3-2021.10/bin/../lib/gcc/arm-none-eabi/10.3.1/../../../../arm-none-eabi/lib/thumb/v7e-m+fp/hard\libg_nano.a(lib_a-nano-mallocr.o)
 .text._malloc_r
                0x08004bb4       0xe8 d:/at32ide/platform/tools/gcc-arm-none-eabi-10.3-2021.10/bin/../lib/gcc/arm-none-eabi/10.3.1/../../../../arm-none-eabi/lib/thumb/v7e-m+fp/hard\libg_nano.a(lib_a-nano-mallocr.o)
                0x08004bb4                _malloc_r
 .text.__sfputc_r
                0x08004c9c       0x2e d:/at32ide/platform/tools/gcc-arm-none-eabi-10.3-2021.10/bin/../lib/gcc/arm-none-eabi/10.3.1/../../../../arm-none-eabi/lib/thumb/v7e-m+fp/hard\libg_nano.a(lib_a-nano-vfprintf.o)
 .text.__sfputs_r
                0x08004cca       0x24 d:/at32ide/platform/tools/gcc-arm-none-eabi-10.3-2021.10/bin/../lib/gcc/arm-none-eabi/10.3.1/../../../../arm-none-eabi/lib/thumb/v7e-m+fp/hard\libg_nano.a(lib_a-nano-vfprintf.o)
                0x08004cca                __sfputs_r
 *fill*         0x08004cee        0x2 
 .text._vfprintf_r
                0x08004cf0      0x260 d:/at32ide/platform/tools/gcc-arm-none-eabi-10.3-2021.10/bin/../lib/gcc/arm-none-eabi/10.3.1/../../../../arm-none-eabi/lib/thumb/v7e-m+fp/hard\libg_nano.a(lib_a-nano-vfprintf.o)
                0x08004cf0                _vfprintf_r
                0x08004cf0                _vfiprintf_r
 .text._sbrk_r  0x08004f50       0x20 d:/at32ide/platform/tools/gcc-arm-none-eabi-10.3-2021.10/bin/../lib/gcc/arm-none-eabi/10.3.1/../../../../arm-none-eabi/lib/thumb/v7e-m+fp/hard\libg_nano.a(lib_a-sbrkr.o)
                0x08004f50                _sbrk_r
 .text.__sread  0x08004f70       0x22 d:/at32ide/platform/tools/gcc-arm-none-eabi-10.3-2021.10/bin/../lib/gcc/arm-none-eabi/10.3.1/../../../../arm-none-eabi/lib/thumb/v7e-m+fp/hard\libg_nano.a(lib_a-stdio.o)
                0x08004f70                __sread
 .text.__swrite
                0x08004f92       0x38 d:/at32ide/platform/tools/gcc-arm-none-eabi-10.3-2021.10/bin/../lib/gcc/arm-none-eabi/10.3.1/../../../../arm-none-eabi/lib/thumb/v7e-m+fp/hard\libg_nano.a(lib_a-stdio.o)
                0x08004f92                __swrite
 .text.__sseek  0x08004fca       0x24 d:/at32ide/platform/tools/gcc-arm-none-eabi-10.3-2021.10/bin/../lib/gcc/arm-none-eabi/10.3.1/../../../../arm-none-eabi/lib/thumb/v7e-m+fp/hard\libg_nano.a(lib_a-stdio.o)
                0x08004fca                __sseek
 .text.__sclose
                0x08004fee        0x8 d:/at32ide/platform/tools/gcc-arm-none-eabi-10.3-2021.10/bin/../lib/gcc/arm-none-eabi/10.3.1/../../../../arm-none-eabi/lib/thumb/v7e-m+fp/hard\libg_nano.a(lib_a-stdio.o)
                0x08004fee                __sclose
 *fill*         0x08004ff6        0x2 
 .text._write_r
                0x08004ff8       0x24 d:/at32ide/platform/tools/gcc-arm-none-eabi-10.3-2021.10/bin/../lib/gcc/arm-none-eabi/10.3.1/../../../../arm-none-eabi/lib/thumb/v7e-m+fp/hard\libg_nano.a(lib_a-writer.o)
                0x08004ff8                _write_r
 .text.__assert_func
                0x0800501c       0x3c d:/at32ide/platform/tools/gcc-arm-none-eabi-10.3-2021.10/bin/../lib/gcc/arm-none-eabi/10.3.1/../../../../arm-none-eabi/lib/thumb/v7e-m+fp/hard\libg_nano.a(lib_a-assert.o)
                0x0800501c                __assert_func
 .text._close_r
                0x08005058       0x20 d:/at32ide/platform/tools/gcc-arm-none-eabi-10.3-2021.10/bin/../lib/gcc/arm-none-eabi/10.3.1/../../../../arm-none-eabi/lib/thumb/v7e-m+fp/hard\libg_nano.a(lib_a-closer.o)
                0x08005058                _close_r
 .text.fprintf  0x08005078       0x24 d:/at32ide/platform/tools/gcc-arm-none-eabi-10.3-2021.10/bin/../lib/gcc/arm-none-eabi/10.3.1/../../../../arm-none-eabi/lib/thumb/v7e-m+fp/hard\libg_nano.a(lib_a-fprintf.o)
                0x08005078                fiprintf
                0x08005078                fprintf
 .text._fstat_r
                0x0800509c       0x24 d:/at32ide/platform/tools/gcc-arm-none-eabi-10.3-2021.10/bin/../lib/gcc/arm-none-eabi/10.3.1/../../../../arm-none-eabi/lib/thumb/v7e-m+fp/hard\libg_nano.a(lib_a-fstatr.o)
                0x0800509c                _fstat_r
 .text._isatty_r
                0x080050c0       0x20 d:/at32ide/platform/tools/gcc-arm-none-eabi-10.3-2021.10/bin/../lib/gcc/arm-none-eabi/10.3.1/../../../../arm-none-eabi/lib/thumb/v7e-m+fp/hard\libg_nano.a(lib_a-isattyr.o)
                0x080050c0                _isatty_r
 .text._lseek_r
                0x080050e0       0x24 d:/at32ide/platform/tools/gcc-arm-none-eabi-10.3-2021.10/bin/../lib/gcc/arm-none-eabi/10.3.1/../../../../arm-none-eabi/lib/thumb/v7e-m+fp/hard\libg_nano.a(lib_a-lseekr.o)
                0x080050e0                _lseek_r
 .text.__ascii_mbtowc
                0x08005104       0x24 d:/at32ide/platform/tools/gcc-arm-none-eabi-10.3-2021.10/bin/../lib/gcc/arm-none-eabi/10.3.1/../../../../arm-none-eabi/lib/thumb/v7e-m+fp/hard\libg_nano.a(lib_a-mbtowc_r.o)
                0x08005104                __ascii_mbtowc
 .text.__malloc_lock
                0x08005128        0xc d:/at32ide/platform/tools/gcc-arm-none-eabi-10.3-2021.10/bin/../lib/gcc/arm-none-eabi/10.3.1/../../../../arm-none-eabi/lib/thumb/v7e-m+fp/hard\libg_nano.a(lib_a-mlock.o)
                0x08005128                __malloc_lock
 .text.__malloc_unlock
                0x08005134        0xc d:/at32ide/platform/tools/gcc-arm-none-eabi-10.3-2021.10/bin/../lib/gcc/arm-none-eabi/10.3.1/../../../../arm-none-eabi/lib/thumb/v7e-m+fp/hard\libg_nano.a(lib_a-mlock.o)
                0x08005134                __malloc_unlock
 .text._read_r  0x08005140       0x24 d:/at32ide/platform/tools/gcc-arm-none-eabi-10.3-2021.10/bin/../lib/gcc/arm-none-eabi/10.3.1/../../../../arm-none-eabi/lib/thumb/v7e-m+fp/hard\libg_nano.a(lib_a-readr.o)
                0x08005140                _read_r
 .text.__ascii_wctomb
                0x08005164       0x1a d:/at32ide/platform/tools/gcc-arm-none-eabi-10.3-2021.10/bin/../lib/gcc/arm-none-eabi/10.3.1/../../../../arm-none-eabi/lib/thumb/v7e-m+fp/hard\libg_nano.a(lib_a-wctomb_r.o)
                0x08005164                __ascii_wctomb
 .text.abort    0x0800517e        0xe d:/at32ide/platform/tools/gcc-arm-none-eabi-10.3-2021.10/bin/../lib/gcc/arm-none-eabi/10.3.1/../../../../arm-none-eabi/lib/thumb/v7e-m+fp/hard\libg_nano.a(lib_a-abort.o)
                0x0800517e                abort
 .text._raise_r
                0x0800518c       0x50 d:/at32ide/platform/tools/gcc-arm-none-eabi-10.3-2021.10/bin/../lib/gcc/arm-none-eabi/10.3.1/../../../../arm-none-eabi/lib/thumb/v7e-m+fp/hard\libg_nano.a(lib_a-signal.o)
                0x0800518c                _raise_r
 .text.raise    0x080051dc       0x10 d:/at32ide/platform/tools/gcc-arm-none-eabi-10.3-2021.10/bin/../lib/gcc/arm-none-eabi/10.3.1/../../../../arm-none-eabi/lib/thumb/v7e-m+fp/hard\libg_nano.a(lib_a-signal.o)
                0x080051dc                raise
 .text._kill_r  0x080051ec       0x24 d:/at32ide/platform/tools/gcc-arm-none-eabi-10.3-2021.10/bin/../lib/gcc/arm-none-eabi/10.3.1/../../../../arm-none-eabi/lib/thumb/v7e-m+fp/hard\libg_nano.a(lib_a-signalr.o)
                0x080051ec                _kill_r
 .text._getpid_r
                0x08005210        0x4 d:/at32ide/platform/tools/gcc-arm-none-eabi-10.3-2021.10/bin/../lib/gcc/arm-none-eabi/10.3.1/../../../../arm-none-eabi/lib/thumb/v7e-m+fp/hard\libg_nano.a(lib_a-signalr.o)
                0x08005210                _getpid_r
 .text._close   0x08005214       0x10 d:/at32ide/platform/tools/gcc-arm-none-eabi-10.3-2021.10/bin/../lib/gcc/arm-none-eabi/10.3.1/../../../../arm-none-eabi/lib/thumb/v7e-m+fp/hard\libnosys.a(close.o)
                0x08005214                _close
 .text._fstat   0x08005224       0x10 d:/at32ide/platform/tools/gcc-arm-none-eabi-10.3-2021.10/bin/../lib/gcc/arm-none-eabi/10.3.1/../../../../arm-none-eabi/lib/thumb/v7e-m+fp/hard\libnosys.a(fstat.o)
                0x08005224                _fstat
 .text._getpid  0x08005234       0x10 d:/at32ide/platform/tools/gcc-arm-none-eabi-10.3-2021.10/bin/../lib/gcc/arm-none-eabi/10.3.1/../../../../arm-none-eabi/lib/thumb/v7e-m+fp/hard\libnosys.a(getpid.o)
                0x08005234                _getpid
 .text._isatty  0x08005244       0x10 d:/at32ide/platform/tools/gcc-arm-none-eabi-10.3-2021.10/bin/../lib/gcc/arm-none-eabi/10.3.1/../../../../arm-none-eabi/lib/thumb/v7e-m+fp/hard\libnosys.a(isatty.o)
                0x08005244                _isatty
 .text._kill    0x08005254       0x10 d:/at32ide/platform/tools/gcc-arm-none-eabi-10.3-2021.10/bin/../lib/gcc/arm-none-eabi/10.3.1/../../../../arm-none-eabi/lib/thumb/v7e-m+fp/hard\libnosys.a(kill.o)
                0x08005254                _kill
 .text._lseek   0x08005264       0x10 d:/at32ide/platform/tools/gcc-arm-none-eabi-10.3-2021.10/bin/../lib/gcc/arm-none-eabi/10.3.1/../../../../arm-none-eabi/lib/thumb/v7e-m+fp/hard\libnosys.a(lseek.o)
                0x08005264                _lseek
 .text._read    0x08005274       0x10 d:/at32ide/platform/tools/gcc-arm-none-eabi-10.3-2021.10/bin/../lib/gcc/arm-none-eabi/10.3.1/../../../../arm-none-eabi/lib/thumb/v7e-m+fp/hard\libnosys.a(read.o)
                0x08005274                _read
 .text._sbrk    0x08005284       0x1c d:/at32ide/platform/tools/gcc-arm-none-eabi-10.3-2021.10/bin/../lib/gcc/arm-none-eabi/10.3.1/../../../../arm-none-eabi/lib/thumb/v7e-m+fp/hard\libnosys.a(sbrk.o)
                0x08005284                _sbrk
 .text._exit    0x080052a0        0x4 d:/at32ide/platform/tools/gcc-arm-none-eabi-10.3-2021.10/bin/../lib/gcc/arm-none-eabi/10.3.1/../../../../arm-none-eabi/lib/thumb/v7e-m+fp/hard\libnosys.a(_exit.o)
                0x080052a0                _exit
 *(.glue_7)
 .glue_7        0x080052a4        0x0 linker stubs
 *(.glue_7t)
 .glue_7t       0x080052a4        0x0 linker stubs
 *(.eh_frame)
 .eh_frame      0x080052a4        0x0 d:/at32ide/platform/tools/gcc-arm-none-eabi-10.3-2021.10/bin/../lib/gcc/arm-none-eabi/10.3.1/thumb/v7e-m+fp/hard/crtbegin.o
 *(.init)
 .init          0x080052a4        0x4 d:/at32ide/platform/tools/gcc-arm-none-eabi-10.3-2021.10/bin/../lib/gcc/arm-none-eabi/10.3.1/thumb/v7e-m+fp/hard/crti.o
                0x080052a4                _init
 .init          0x080052a8        0x8 d:/at32ide/platform/tools/gcc-arm-none-eabi-10.3-2021.10/bin/../lib/gcc/arm-none-eabi/10.3.1/thumb/v7e-m+fp/hard/crtn.o
 *(.fini)
 .fini          0x080052b0        0x4 d:/at32ide/platform/tools/gcc-arm-none-eabi-10.3-2021.10/bin/../lib/gcc/arm-none-eabi/10.3.1/thumb/v7e-m+fp/hard/crti.o
                0x080052b0                _fini
 .fini          0x080052b4        0x8 d:/at32ide/platform/tools/gcc-arm-none-eabi-10.3-2021.10/bin/../lib/gcc/arm-none-eabi/10.3.1/thumb/v7e-m+fp/hard/crtn.o
                0x080052bc                . = ALIGN (0x4)
                0x080052bc                _etext = .

.vfp11_veneer   0x080052bc        0x0
 .vfp11_veneer  0x080052bc        0x0 linker stubs

.v4_bx          0x080052bc        0x0
 .v4_bx         0x080052bc        0x0 linker stubs

.iplt           0x080052bc        0x0
 .iplt          0x080052bc        0x0 d:/at32ide/platform/tools/gcc-arm-none-eabi-10.3-2021.10/bin/../lib/gcc/arm-none-eabi/10.3.1/thumb/v7e-m+fp/hard/crtbegin.o

.rodata         0x080052c0      0x5cc
                0x080052c0                . = ALIGN (0x4)
 *(.rodata)
 .rodata        0x080052c0      0x16f ./user/main.o
 *fill*         0x0800542f        0x1 
 .rodata        0x08005430       0x28 ./firmware/at32f403a_407_crm.o
 .rodata        0x08005458       0x10 ./cmsis/system_at32f403a_407.o
 *(.rodata*)
 .rodata._global_impure_ptr
                0x08005468        0x4 d:/at32ide/platform/tools/gcc-arm-none-eabi-10.3-2021.10/bin/../lib/gcc/arm-none-eabi/10.3.1/../../../../arm-none-eabi/lib/thumb/v7e-m+fp/hard\libg_nano.a(lib_a-impure.o)
                0x08005468                _global_impure_ptr
 .rodata._printf_float.str1.1
                0x0800546c       0x12 d:/at32ide/platform/tools/gcc-arm-none-eabi-10.3-2021.10/bin/../lib/gcc/arm-none-eabi/10.3.1/../../../../arm-none-eabi/lib/thumb/v7e-m+fp/hard\libg_nano.a(lib_a-nano-vfprintf_float.o)
 .rodata._printf_i.str1.1
                0x0800547e       0x22 d:/at32ide/platform/tools/gcc-arm-none-eabi-10.3-2021.10/bin/../lib/gcc/arm-none-eabi/10.3.1/../../../../arm-none-eabi/lib/thumb/v7e-m+fp/hard\libg_nano.a(lib_a-nano-vfprintf_i.o)
 .rodata._dtoa_r.str1.1
                0x080054a0       0xb3 d:/at32ide/platform/tools/gcc-arm-none-eabi-10.3-2021.10/bin/../lib/gcc/arm-none-eabi/10.3.1/../../../../arm-none-eabi/lib/thumb/v7e-m+fp/hard\libg_nano.a(lib_a-dtoa.o)
                                 0xb5 (size before relaxing)
 *fill*         0x08005553        0x1 
 .rodata.__sf_fake_stderr
                0x08005554       0x20 d:/at32ide/platform/tools/gcc-arm-none-eabi-10.3-2021.10/bin/../lib/gcc/arm-none-eabi/10.3.1/../../../../arm-none-eabi/lib/thumb/v7e-m+fp/hard\libg_nano.a(lib_a-findfp.o)
                0x08005554                __sf_fake_stderr
 .rodata.__sf_fake_stdin
                0x08005574       0x20 d:/at32ide/platform/tools/gcc-arm-none-eabi-10.3-2021.10/bin/../lib/gcc/arm-none-eabi/10.3.1/../../../../arm-none-eabi/lib/thumb/v7e-m+fp/hard\libg_nano.a(lib_a-findfp.o)
                0x08005574                __sf_fake_stdin
 .rodata.__sf_fake_stdout
                0x08005594       0x20 d:/at32ide/platform/tools/gcc-arm-none-eabi-10.3-2021.10/bin/../lib/gcc/arm-none-eabi/10.3.1/../../../../arm-none-eabi/lib/thumb/v7e-m+fp/hard\libg_nano.a(lib_a-findfp.o)
                0x08005594                __sf_fake_stdout
 .rodata._Balloc.str1.1
                0x080055b4       0x7f d:/at32ide/platform/tools/gcc-arm-none-eabi-10.3-2021.10/bin/../lib/gcc/arm-none-eabi/10.3.1/../../../../arm-none-eabi/lib/thumb/v7e-m+fp/hard\libg_nano.a(lib_a-mprec.o)
                                 0x96 (size before relaxing)
 .rodata.__multadd.str1.1
                0x08005633       0x11 d:/at32ide/platform/tools/gcc-arm-none-eabi-10.3-2021.10/bin/../lib/gcc/arm-none-eabi/10.3.1/../../../../arm-none-eabi/lib/thumb/v7e-m+fp/hard\libg_nano.a(lib_a-mprec.o)
 *fill*         0x08005633        0x5 
 .rodata.__mprec_bigtens
                0x08005638       0x28 d:/at32ide/platform/tools/gcc-arm-none-eabi-10.3-2021.10/bin/../lib/gcc/arm-none-eabi/10.3.1/../../../../arm-none-eabi/lib/thumb/v7e-m+fp/hard\libg_nano.a(lib_a-mprec.o)
                0x08005638                __mprec_bigtens
 .rodata.__mprec_tens
                0x08005660       0xc8 d:/at32ide/platform/tools/gcc-arm-none-eabi-10.3-2021.10/bin/../lib/gcc/arm-none-eabi/10.3.1/../../../../arm-none-eabi/lib/thumb/v7e-m+fp/hard\libg_nano.a(lib_a-mprec.o)
                0x08005660                __mprec_tens
 .rodata.p05.0  0x08005728        0xc d:/at32ide/platform/tools/gcc-arm-none-eabi-10.3-2021.10/bin/../lib/gcc/arm-none-eabi/10.3.1/../../../../arm-none-eabi/lib/thumb/v7e-m+fp/hard\libg_nano.a(lib_a-mprec.o)
 .rodata._vfprintf_r.str1.1
                0x08005734       0x11 d:/at32ide/platform/tools/gcc-arm-none-eabi-10.3-2021.10/bin/../lib/gcc/arm-none-eabi/10.3.1/../../../../arm-none-eabi/lib/thumb/v7e-m+fp/hard\libg_nano.a(lib_a-nano-vfprintf.o)
 .rodata.__assert_func.str1.1
                0x08005745       0x3c d:/at32ide/platform/tools/gcc-arm-none-eabi-10.3-2021.10/bin/../lib/gcc/arm-none-eabi/10.3.1/../../../../arm-none-eabi/lib/thumb/v7e-m+fp/hard\libg_nano.a(lib_a-assert.o)
                                 0x3d (size before relaxing)
 .rodata._setlocale_r.str1.1
                0x08005781        0x8 d:/at32ide/platform/tools/gcc-arm-none-eabi-10.3-2021.10/bin/../lib/gcc/arm-none-eabi/10.3.1/../../../../arm-none-eabi/lib/thumb/v7e-m+fp/hard\libg_nano.a(lib_a-locale.o)
                                  0x9 (size before relaxing)
 .rodata.str1.1
                0x08005789        0x2 d:/at32ide/platform/tools/gcc-arm-none-eabi-10.3-2021.10/bin/../lib/gcc/arm-none-eabi/10.3.1/../../../../arm-none-eabi/lib/thumb/v7e-m+fp/hard\libg_nano.a(lib_a-locale.o)
 .rodata._ctype_
                0x0800578b      0x101 d:/at32ide/platform/tools/gcc-arm-none-eabi-10.3-2021.10/bin/../lib/gcc/arm-none-eabi/10.3.1/../../../../arm-none-eabi/lib/thumb/v7e-m+fp/hard\libg_nano.a(lib_a-ctype_.o)
                0x0800578b                _ctype_
                0x0800588c                . = ALIGN (0x4)

.rel.dyn        0x0800588c        0x0
 .rel.iplt      0x0800588c        0x0 d:/at32ide/platform/tools/gcc-arm-none-eabi-10.3-2021.10/bin/../lib/gcc/arm-none-eabi/10.3.1/thumb/v7e-m+fp/hard/crtbegin.o

.ARM.extab
 *(.ARM.extab* .gnu.linkonce.armextab.*)

.ARM            0x0800588c        0x0
                0x0800588c                __exidx_start = .
 *(.ARM.exidx*)
                0x0800588c                __exidx_end = .

.preinit_array  0x0800588c        0x0
                0x0800588c                PROVIDE (__preinit_array_start = .)
 *(.preinit_array*)
                0x0800588c                PROVIDE (__preinit_array_end = .)

.init_array     0x0800588c        0x4
                0x0800588c                PROVIDE (__init_array_start = .)
 *(SORT_BY_NAME(.init_array.*))
 *(.init_array*)
 .init_array    0x0800588c        0x4 d:/at32ide/platform/tools/gcc-arm-none-eabi-10.3-2021.10/bin/../lib/gcc/arm-none-eabi/10.3.1/thumb/v7e-m+fp/hard/crtbegin.o
                0x08005890                PROVIDE (__init_array_end = .)

.fini_array     0x08005890        0x4
                [!provide]                PROVIDE (__fini_array_start = .)
 *(SORT_BY_NAME(.fini_array.*))
 *(.fini_array*)
 .fini_array    0x08005890        0x4 d:/at32ide/platform/tools/gcc-arm-none-eabi-10.3-2021.10/bin/../lib/gcc/arm-none-eabi/10.3.1/thumb/v7e-m+fp/hard/crtbegin.o
                [!provide]                PROVIDE (__fini_array_end = .)
                0x08005894                _sidata = LOADADDR (.data)

.data           0x20000000      0x1fc load address 0x08005894
                0x20000000                . = ALIGN (0x4)
                0x20000000                _sdata = .
 *(.data)
 .data          0x20000000        0x1 ./user/main.o
                0x20000000                g_speed
 *fill*         0x20000001        0x3 
 .data          0x20000004        0x4 ./cmsis/system_at32f403a_407.o
                0x20000004                system_core_clock
 .data          0x20000008       0x21 ./bsp/at32f403a_407_board.o
                0x20000008                led_gpio_port
                0x20000014                led_gpio_pin
                0x2000001c                led_gpio_crm_clk
 *(.data*)
 *fill*         0x20000029        0x3 
 .data._impure_ptr
                0x2000002c        0x4 d:/at32ide/platform/tools/gcc-arm-none-eabi-10.3-2021.10/bin/../lib/gcc/arm-none-eabi/10.3.1/../../../../arm-none-eabi/lib/thumb/v7e-m+fp/hard\libg_nano.a(lib_a-impure.o)
                0x2000002c                _impure_ptr
 .data.impure_data
                0x20000030       0x60 d:/at32ide/platform/tools/gcc-arm-none-eabi-10.3-2021.10/bin/../lib/gcc/arm-none-eabi/10.3.1/../../../../arm-none-eabi/lib/thumb/v7e-m+fp/hard\libg_nano.a(lib_a-impure.o)
 .data.__global_locale
                0x20000090      0x16c d:/at32ide/platform/tools/gcc-arm-none-eabi-10.3-2021.10/bin/../lib/gcc/arm-none-eabi/10.3.1/../../../../arm-none-eabi/lib/thumb/v7e-m+fp/hard\libg_nano.a(lib_a-locale.o)
                0x20000090                __global_locale
                0x200001fc                . = ALIGN (0x4)
                0x200001fc                _edata = .
                0x08400000                _spim_init_base = LOADADDR (.spim)
                0x00000000                _spim_init_length = SIZEOF (.spim)

.igot.plt       0x200001fc        0x0 load address 0x08005a90
 .igot.plt      0x200001fc        0x0 d:/at32ide/platform/tools/gcc-arm-none-eabi-10.3-2021.10/bin/../lib/gcc/arm-none-eabi/10.3.1/thumb/v7e-m+fp/hard/crtbegin.o

.spim           0x08400000        0x0
                0x08400000                . = ALIGN (0x4)
                0x08400000                _spim_start = .
 *(.spim)
 *(.spim*)
                0x08400000                . = ALIGN (0x4)
                0x08400000                _spim_end = .
                0x08400000                . = ALIGN (0x4)

.bss            0x200001fc       0x3c
                0x200001fc                _sbss = .
                0x200001fc                __bss_start__ = _sbss
 *(.bss)
 .bss           0x200001fc       0x1c d:/at32ide/platform/tools/gcc-arm-none-eabi-10.3-2021.10/bin/../lib/gcc/arm-none-eabi/10.3.1/thumb/v7e-m+fp/hard/crtbegin.o
 .bss           0x20000218        0x2 ./user/main.o
                0x20000218                adc1_ordinary_value
 *fill*         0x2000021a        0x2 
 .bss           0x2000021c        0x8 ./bsp/at32f403a_407_board.o
 *(.bss*)
 .bss.__lock___malloc_recursive_mutex
                0x20000224        0x1 d:/at32ide/platform/tools/gcc-arm-none-eabi-10.3-2021.10/bin/../lib/gcc/arm-none-eabi/10.3.1/../../../../arm-none-eabi/lib/thumb/v7e-m+fp/hard\libg_nano.a(lib_a-lock.o)
                0x20000224                __lock___malloc_recursive_mutex
 .bss.__lock___sfp_recursive_mutex
                0x20000225        0x1 d:/at32ide/platform/tools/gcc-arm-none-eabi-10.3-2021.10/bin/../lib/gcc/arm-none-eabi/10.3.1/../../../../arm-none-eabi/lib/thumb/v7e-m+fp/hard\libg_nano.a(lib_a-lock.o)
                0x20000225                __lock___sfp_recursive_mutex
 .bss.__lock___sinit_recursive_mutex
                0x20000226        0x1 d:/at32ide/platform/tools/gcc-arm-none-eabi-10.3-2021.10/bin/../lib/gcc/arm-none-eabi/10.3.1/../../../../arm-none-eabi/lib/thumb/v7e-m+fp/hard\libg_nano.a(lib_a-lock.o)
                0x20000226                __lock___sinit_recursive_mutex
 *fill*         0x20000227        0x1 
 .bss.__malloc_free_list
                0x20000228        0x4 d:/at32ide/platform/tools/gcc-arm-none-eabi-10.3-2021.10/bin/../lib/gcc/arm-none-eabi/10.3.1/../../../../arm-none-eabi/lib/thumb/v7e-m+fp/hard\libg_nano.a(lib_a-nano-mallocr.o)
                0x20000228                __malloc_free_list
 .bss.__malloc_sbrk_start
                0x2000022c        0x4 d:/at32ide/platform/tools/gcc-arm-none-eabi-10.3-2021.10/bin/../lib/gcc/arm-none-eabi/10.3.1/../../../../arm-none-eabi/lib/thumb/v7e-m+fp/hard\libg_nano.a(lib_a-nano-mallocr.o)
                0x2000022c                __malloc_sbrk_start
 .bss.errno     0x20000230        0x4 d:/at32ide/platform/tools/gcc-arm-none-eabi-10.3-2021.10/bin/../lib/gcc/arm-none-eabi/10.3.1/../../../../arm-none-eabi/lib/thumb/v7e-m+fp/hard\libg_nano.a(lib_a-reent.o)
                0x20000230                errno
 .bss.heap_end.0
                0x20000234        0x4 d:/at32ide/platform/tools/gcc-arm-none-eabi-10.3-2021.10/bin/../lib/gcc/arm-none-eabi/10.3.1/../../../../arm-none-eabi/lib/thumb/v7e-m+fp/hard\libnosys.a(sbrk.o)
 *(COMMON)
                0x20000238                . = ALIGN (0x4)
                0x20000238                _ebss = .
                0x20000238                __bss_end__ = _ebss

._user_heap_stack
                0x20000238      0x600
                0x20000238                . = ALIGN (0x8)
                0x20000238                PROVIDE (end = .)
                [!provide]                PROVIDE (_end = .)
                0x20000438                . = (. + _Min_Heap_Size)
 *fill*         0x20000238      0x200 
                0x20000838                . = (. + _Min_Stack_Size)
 *fill*         0x20000438      0x400 
                0x20000838                . = ALIGN (0x8)

/DISCARD/
 libc.a(*)
 libm.a(*)
 libgcc.a(*)

.ARM.attributes
                0x00000000       0x30
 *(.ARM.attributes)
 .ARM.attributes
                0x00000000       0x1e d:/at32ide/platform/tools/gcc-arm-none-eabi-10.3-2021.10/bin/../lib/gcc/arm-none-eabi/10.3.1/thumb/v7e-m+fp/hard/crti.o
 .ARM.attributes
                0x0000001e       0x34 d:/at32ide/platform/tools/gcc-arm-none-eabi-10.3-2021.10/bin/../lib/gcc/arm-none-eabi/10.3.1/thumb/v7e-m+fp/hard/crtbegin.o
 .ARM.attributes
                0x00000052       0x34 ./user/at32f403a_407_clock.o
 .ARM.attributes
                0x00000086       0x34 ./user/at32f403a_407_int.o
 .ARM.attributes
                0x000000ba       0x34 ./user/main.o
 .ARM.attributes
                0x000000ee       0x34 ./firmware/at32f403a_407_adc.o
 .ARM.attributes
                0x00000122       0x34 ./firmware/at32f403a_407_crm.o
 .ARM.attributes
                0x00000156       0x34 ./firmware/at32f403a_407_dma.o
 .ARM.attributes
                0x0000018a       0x34 ./firmware/at32f403a_407_exint.o
 .ARM.attributes
                0x000001be       0x34 ./firmware/at32f403a_407_gpio.o
 .ARM.attributes
                0x000001f2       0x34 ./firmware/at32f403a_407_misc.o
 .ARM.attributes
                0x00000226       0x34 ./firmware/at32f403a_407_usart.o
 .ARM.attributes
                0x0000025a       0x21 ./cmsis/startup_at32f403a_407.o
 .ARM.attributes
                0x0000027b       0x34 ./cmsis/system_at32f403a_407.o
 .ARM.attributes
                0x000002af       0x34 ./bsp/at32f403a_407_board.o
 .ARM.attributes
                0x000002e3       0x1e d:/at32ide/platform/tools/gcc-arm-none-eabi-10.3-2021.10/bin/../lib/gcc/arm-none-eabi/10.3.1/thumb/v7e-m+fp/hard\libgcc.a(_arm_addsubdf3.o)
 .ARM.attributes
                0x00000301       0x1e d:/at32ide/platform/tools/gcc-arm-none-eabi-10.3-2021.10/bin/../lib/gcc/arm-none-eabi/10.3.1/thumb/v7e-m+fp/hard\libgcc.a(_arm_muldivdf3.o)
 .ARM.attributes
                0x0000031f       0x34 d:/at32ide/platform/tools/gcc-arm-none-eabi-10.3-2021.10/bin/../lib/gcc/arm-none-eabi/10.3.1/../../../../arm-none-eabi/lib/thumb/v7e-m+fp/hard\libg_nano.a(lib_a-impure.o)
 .ARM.attributes
                0x00000353       0x34 d:/at32ide/platform/tools/gcc-arm-none-eabi-10.3-2021.10/bin/../lib/gcc/arm-none-eabi/10.3.1/../../../../arm-none-eabi/lib/thumb/v7e-m+fp/hard\libg_nano.a(lib_a-init.o)
 .ARM.attributes
                0x00000387       0x34 d:/at32ide/platform/tools/gcc-arm-none-eabi-10.3-2021.10/bin/../lib/gcc/arm-none-eabi/10.3.1/../../../../arm-none-eabi/lib/thumb/v7e-m+fp/hard\libg_nano.a(lib_a-memset.o)
 .ARM.attributes
                0x000003bb       0x34 d:/at32ide/platform/tools/gcc-arm-none-eabi-10.3-2021.10/bin/../lib/gcc/arm-none-eabi/10.3.1/../../../../arm-none-eabi/lib/thumb/v7e-m+fp/hard\libg_nano.a(lib_a-nano-vfprintf_float.o)
 .ARM.attributes
                0x000003ef       0x34 d:/at32ide/platform/tools/gcc-arm-none-eabi-10.3-2021.10/bin/../lib/gcc/arm-none-eabi/10.3.1/../../../../arm-none-eabi/lib/thumb/v7e-m+fp/hard\libg_nano.a(lib_a-nano-vfprintf_i.o)
 .ARM.attributes
                0x00000423       0x34 d:/at32ide/platform/tools/gcc-arm-none-eabi-10.3-2021.10/bin/../lib/gcc/arm-none-eabi/10.3.1/../../../../arm-none-eabi/lib/thumb/v7e-m+fp/hard\libg_nano.a(lib_a-printf.o)
 .ARM.attributes
                0x00000457       0x34 d:/at32ide/platform/tools/gcc-arm-none-eabi-10.3-2021.10/bin/../lib/gcc/arm-none-eabi/10.3.1/../../../../arm-none-eabi/lib/thumb/v7e-m+fp/hard\libg_nano.a(lib_a-puts.o)
 .ARM.attributes
                0x0000048b       0x17 d:/at32ide/platform/tools/gcc-arm-none-eabi-10.3-2021.10/bin/../lib/gcc/arm-none-eabi/10.3.1/../../../../arm-none-eabi/lib/thumb/v7e-m+fp/hard\libg_nano.a(lib_a-strlen.o)
 .ARM.attributes
                0x000004a2       0x34 d:/at32ide/platform/tools/gcc-arm-none-eabi-10.3-2021.10/bin/../lib/gcc/arm-none-eabi/10.3.1/../../../../arm-none-eabi/lib/thumb/v7e-m+fp/hard\libg_nano.a(lib_a-wbuf.o)
 .ARM.attributes
                0x000004d6       0x34 d:/at32ide/platform/tools/gcc-arm-none-eabi-10.3-2021.10/bin/../lib/gcc/arm-none-eabi/10.3.1/../../../../arm-none-eabi/lib/thumb/v7e-m+fp/hard\libg_nano.a(lib_a-wsetup.o)
 .ARM.attributes
                0x0000050a       0x34 d:/at32ide/platform/tools/gcc-arm-none-eabi-10.3-2021.10/bin/../lib/gcc/arm-none-eabi/10.3.1/../../../../arm-none-eabi/lib/thumb/v7e-m+fp/hard\libg_nano.a(lib_a-dtoa.o)
 .ARM.attributes
                0x0000053e       0x34 d:/at32ide/platform/tools/gcc-arm-none-eabi-10.3-2021.10/bin/../lib/gcc/arm-none-eabi/10.3.1/../../../../arm-none-eabi/lib/thumb/v7e-m+fp/hard\libg_nano.a(lib_a-fflush.o)
 .ARM.attributes
                0x00000572       0x34 d:/at32ide/platform/tools/gcc-arm-none-eabi-10.3-2021.10/bin/../lib/gcc/arm-none-eabi/10.3.1/../../../../arm-none-eabi/lib/thumb/v7e-m+fp/hard\libg_nano.a(lib_a-findfp.o)
 .ARM.attributes
                0x000005a6       0x34 d:/at32ide/platform/tools/gcc-arm-none-eabi-10.3-2021.10/bin/../lib/gcc/arm-none-eabi/10.3.1/../../../../arm-none-eabi/lib/thumb/v7e-m+fp/hard\libg_nano.a(lib_a-fwalk.o)
 .ARM.attributes
                0x000005da       0x34 d:/at32ide/platform/tools/gcc-arm-none-eabi-10.3-2021.10/bin/../lib/gcc/arm-none-eabi/10.3.1/../../../../arm-none-eabi/lib/thumb/v7e-m+fp/hard\libg_nano.a(lib_a-localeconv.o)
 .ARM.attributes
                0x0000060e       0x34 d:/at32ide/platform/tools/gcc-arm-none-eabi-10.3-2021.10/bin/../lib/gcc/arm-none-eabi/10.3.1/../../../../arm-none-eabi/lib/thumb/v7e-m+fp/hard\libg_nano.a(lib_a-lock.o)
 .ARM.attributes
                0x00000642       0x34 d:/at32ide/platform/tools/gcc-arm-none-eabi-10.3-2021.10/bin/../lib/gcc/arm-none-eabi/10.3.1/../../../../arm-none-eabi/lib/thumb/v7e-m+fp/hard\libg_nano.a(lib_a-makebuf.o)
 .ARM.attributes
                0x00000676       0x34 d:/at32ide/platform/tools/gcc-arm-none-eabi-10.3-2021.10/bin/../lib/gcc/arm-none-eabi/10.3.1/../../../../arm-none-eabi/lib/thumb/v7e-m+fp/hard\libg_nano.a(lib_a-malloc.o)
 .ARM.attributes
                0x000006aa       0x1c d:/at32ide/platform/tools/gcc-arm-none-eabi-10.3-2021.10/bin/../lib/gcc/arm-none-eabi/10.3.1/../../../../arm-none-eabi/lib/thumb/v7e-m+fp/hard\libg_nano.a(lib_a-memchr.o)
 .ARM.attributes
                0x000006c6       0x34 d:/at32ide/platform/tools/gcc-arm-none-eabi-10.3-2021.10/bin/../lib/gcc/arm-none-eabi/10.3.1/../../../../arm-none-eabi/lib/thumb/v7e-m+fp/hard\libg_nano.a(lib_a-memcpy-stub.o)
 .ARM.attributes
                0x000006fa       0x34 d:/at32ide/platform/tools/gcc-arm-none-eabi-10.3-2021.10/bin/../lib/gcc/arm-none-eabi/10.3.1/../../../../arm-none-eabi/lib/thumb/v7e-m+fp/hard\libg_nano.a(lib_a-mprec.o)
 .ARM.attributes
                0x0000072e       0x34 d:/at32ide/platform/tools/gcc-arm-none-eabi-10.3-2021.10/bin/../lib/gcc/arm-none-eabi/10.3.1/../../../../arm-none-eabi/lib/thumb/v7e-m+fp/hard\libg_nano.a(lib_a-nano-callocr.o)
 .ARM.attributes
                0x00000762       0x34 d:/at32ide/platform/tools/gcc-arm-none-eabi-10.3-2021.10/bin/../lib/gcc/arm-none-eabi/10.3.1/../../../../arm-none-eabi/lib/thumb/v7e-m+fp/hard\libg_nano.a(lib_a-nano-freer.o)
 .ARM.attributes
                0x00000796       0x34 d:/at32ide/platform/tools/gcc-arm-none-eabi-10.3-2021.10/bin/../lib/gcc/arm-none-eabi/10.3.1/../../../../arm-none-eabi/lib/thumb/v7e-m+fp/hard\libg_nano.a(lib_a-nano-mallocr.o)
 .ARM.attributes
                0x000007ca       0x34 d:/at32ide/platform/tools/gcc-arm-none-eabi-10.3-2021.10/bin/../lib/gcc/arm-none-eabi/10.3.1/../../../../arm-none-eabi/lib/thumb/v7e-m+fp/hard\libg_nano.a(lib_a-nano-vfprintf.o)
 .ARM.attributes
                0x000007fe       0x34 d:/at32ide/platform/tools/gcc-arm-none-eabi-10.3-2021.10/bin/../lib/gcc/arm-none-eabi/10.3.1/../../../../arm-none-eabi/lib/thumb/v7e-m+fp/hard\libg_nano.a(lib_a-sbrkr.o)
 .ARM.attributes
                0x00000832       0x34 d:/at32ide/platform/tools/gcc-arm-none-eabi-10.3-2021.10/bin/../lib/gcc/arm-none-eabi/10.3.1/../../../../arm-none-eabi/lib/thumb/v7e-m+fp/hard\libg_nano.a(lib_a-stdio.o)
 .ARM.attributes
                0x00000866       0x34 d:/at32ide/platform/tools/gcc-arm-none-eabi-10.3-2021.10/bin/../lib/gcc/arm-none-eabi/10.3.1/../../../../arm-none-eabi/lib/thumb/v7e-m+fp/hard\libg_nano.a(lib_a-writer.o)
 .ARM.attributes
                0x0000089a       0x34 d:/at32ide/platform/tools/gcc-arm-none-eabi-10.3-2021.10/bin/../lib/gcc/arm-none-eabi/10.3.1/../../../../arm-none-eabi/lib/thumb/v7e-m+fp/hard\libg_nano.a(lib_a-assert.o)
 .ARM.attributes
                0x000008ce       0x34 d:/at32ide/platform/tools/gcc-arm-none-eabi-10.3-2021.10/bin/../lib/gcc/arm-none-eabi/10.3.1/../../../../arm-none-eabi/lib/thumb/v7e-m+fp/hard\libg_nano.a(lib_a-closer.o)
 .ARM.attributes
                0x00000902       0x34 d:/at32ide/platform/tools/gcc-arm-none-eabi-10.3-2021.10/bin/../lib/gcc/arm-none-eabi/10.3.1/../../../../arm-none-eabi/lib/thumb/v7e-m+fp/hard\libg_nano.a(lib_a-fprintf.o)
 .ARM.attributes
                0x00000936       0x34 d:/at32ide/platform/tools/gcc-arm-none-eabi-10.3-2021.10/bin/../lib/gcc/arm-none-eabi/10.3.1/../../../../arm-none-eabi/lib/thumb/v7e-m+fp/hard\libg_nano.a(lib_a-fstatr.o)
 .ARM.attributes
                0x0000096a       0x34 d:/at32ide/platform/tools/gcc-arm-none-eabi-10.3-2021.10/bin/../lib/gcc/arm-none-eabi/10.3.1/../../../../arm-none-eabi/lib/thumb/v7e-m+fp/hard\libg_nano.a(lib_a-isattyr.o)
 .ARM.attributes
                0x0000099e       0x34 d:/at32ide/platform/tools/gcc-arm-none-eabi-10.3-2021.10/bin/../lib/gcc/arm-none-eabi/10.3.1/../../../../arm-none-eabi/lib/thumb/v7e-m+fp/hard\libg_nano.a(lib_a-locale.o)
 .ARM.attributes
                0x000009d2       0x34 d:/at32ide/platform/tools/gcc-arm-none-eabi-10.3-2021.10/bin/../lib/gcc/arm-none-eabi/10.3.1/../../../../arm-none-eabi/lib/thumb/v7e-m+fp/hard\libg_nano.a(lib_a-lseekr.o)
 .ARM.attributes
                0x00000a06       0x34 d:/at32ide/platform/tools/gcc-arm-none-eabi-10.3-2021.10/bin/../lib/gcc/arm-none-eabi/10.3.1/../../../../arm-none-eabi/lib/thumb/v7e-m+fp/hard\libg_nano.a(lib_a-mbtowc_r.o)
 .ARM.attributes
                0x00000a3a       0x34 d:/at32ide/platform/tools/gcc-arm-none-eabi-10.3-2021.10/bin/../lib/gcc/arm-none-eabi/10.3.1/../../../../arm-none-eabi/lib/thumb/v7e-m+fp/hard\libg_nano.a(lib_a-mlock.o)
 .ARM.attributes
                0x00000a6e       0x34 d:/at32ide/platform/tools/gcc-arm-none-eabi-10.3-2021.10/bin/../lib/gcc/arm-none-eabi/10.3.1/../../../../arm-none-eabi/lib/thumb/v7e-m+fp/hard\libg_nano.a(lib_a-readr.o)
 .ARM.attributes
                0x00000aa2       0x34 d:/at32ide/platform/tools/gcc-arm-none-eabi-10.3-2021.10/bin/../lib/gcc/arm-none-eabi/10.3.1/../../../../arm-none-eabi/lib/thumb/v7e-m+fp/hard\libg_nano.a(lib_a-reent.o)
 .ARM.attributes
                0x00000ad6       0x34 d:/at32ide/platform/tools/gcc-arm-none-eabi-10.3-2021.10/bin/../lib/gcc/arm-none-eabi/10.3.1/../../../../arm-none-eabi/lib/thumb/v7e-m+fp/hard\libg_nano.a(lib_a-wctomb_r.o)
 .ARM.attributes
                0x00000b0a       0x34 d:/at32ide/platform/tools/gcc-arm-none-eabi-10.3-2021.10/bin/../lib/gcc/arm-none-eabi/10.3.1/../../../../arm-none-eabi/lib/thumb/v7e-m+fp/hard\libg_nano.a(lib_a-abort.o)
 .ARM.attributes
                0x00000b3e       0x34 d:/at32ide/platform/tools/gcc-arm-none-eabi-10.3-2021.10/bin/../lib/gcc/arm-none-eabi/10.3.1/../../../../arm-none-eabi/lib/thumb/v7e-m+fp/hard\libg_nano.a(lib_a-ctype_.o)
 .ARM.attributes
                0x00000b72       0x34 d:/at32ide/platform/tools/gcc-arm-none-eabi-10.3-2021.10/bin/../lib/gcc/arm-none-eabi/10.3.1/../../../../arm-none-eabi/lib/thumb/v7e-m+fp/hard\libg_nano.a(lib_a-signal.o)
 .ARM.attributes
                0x00000ba6       0x34 d:/at32ide/platform/tools/gcc-arm-none-eabi-10.3-2021.10/bin/../lib/gcc/arm-none-eabi/10.3.1/../../../../arm-none-eabi/lib/thumb/v7e-m+fp/hard\libg_nano.a(lib_a-signalr.o)
 .ARM.attributes
                0x00000bda       0x1e d:/at32ide/platform/tools/gcc-arm-none-eabi-10.3-2021.10/bin/../lib/gcc/arm-none-eabi/10.3.1/thumb/v7e-m+fp/hard\libgcc.a(_arm_cmpdf2.o)
 .ARM.attributes
                0x00000bf8       0x1e d:/at32ide/platform/tools/gcc-arm-none-eabi-10.3-2021.10/bin/../lib/gcc/arm-none-eabi/10.3.1/thumb/v7e-m+fp/hard\libgcc.a(_arm_unorddf2.o)
 .ARM.attributes
                0x00000c16       0x1e d:/at32ide/platform/tools/gcc-arm-none-eabi-10.3-2021.10/bin/../lib/gcc/arm-none-eabi/10.3.1/thumb/v7e-m+fp/hard\libgcc.a(_arm_fixdfsi.o)
 .ARM.attributes
                0x00000c34       0x34 d:/at32ide/platform/tools/gcc-arm-none-eabi-10.3-2021.10/bin/../lib/gcc/arm-none-eabi/10.3.1/../../../../arm-none-eabi/lib/thumb/v7e-m+fp/hard\libnosys.a(close.o)
 .ARM.attributes
                0x00000c68       0x34 d:/at32ide/platform/tools/gcc-arm-none-eabi-10.3-2021.10/bin/../lib/gcc/arm-none-eabi/10.3.1/../../../../arm-none-eabi/lib/thumb/v7e-m+fp/hard\libnosys.a(fstat.o)
 .ARM.attributes
                0x00000c9c       0x34 d:/at32ide/platform/tools/gcc-arm-none-eabi-10.3-2021.10/bin/../lib/gcc/arm-none-eabi/10.3.1/../../../../arm-none-eabi/lib/thumb/v7e-m+fp/hard\libnosys.a(getpid.o)
 .ARM.attributes
                0x00000cd0       0x34 d:/at32ide/platform/tools/gcc-arm-none-eabi-10.3-2021.10/bin/../lib/gcc/arm-none-eabi/10.3.1/../../../../arm-none-eabi/lib/thumb/v7e-m+fp/hard\libnosys.a(isatty.o)
 .ARM.attributes
                0x00000d04       0x34 d:/at32ide/platform/tools/gcc-arm-none-eabi-10.3-2021.10/bin/../lib/gcc/arm-none-eabi/10.3.1/../../../../arm-none-eabi/lib/thumb/v7e-m+fp/hard\libnosys.a(kill.o)
 .ARM.attributes
                0x00000d38       0x34 d:/at32ide/platform/tools/gcc-arm-none-eabi-10.3-2021.10/bin/../lib/gcc/arm-none-eabi/10.3.1/../../../../arm-none-eabi/lib/thumb/v7e-m+fp/hard\libnosys.a(lseek.o)
 .ARM.attributes
                0x00000d6c       0x34 d:/at32ide/platform/tools/gcc-arm-none-eabi-10.3-2021.10/bin/../lib/gcc/arm-none-eabi/10.3.1/../../../../arm-none-eabi/lib/thumb/v7e-m+fp/hard\libnosys.a(read.o)
 .ARM.attributes
                0x00000da0       0x34 d:/at32ide/platform/tools/gcc-arm-none-eabi-10.3-2021.10/bin/../lib/gcc/arm-none-eabi/10.3.1/../../../../arm-none-eabi/lib/thumb/v7e-m+fp/hard\libnosys.a(sbrk.o)
 .ARM.attributes
                0x00000dd4       0x34 d:/at32ide/platform/tools/gcc-arm-none-eabi-10.3-2021.10/bin/../lib/gcc/arm-none-eabi/10.3.1/../../../../arm-none-eabi/lib/thumb/v7e-m+fp/hard\libnosys.a(_exit.o)
 .ARM.attributes
                0x00000e08       0x1e d:/at32ide/platform/tools/gcc-arm-none-eabi-10.3-2021.10/bin/../lib/gcc/arm-none-eabi/10.3.1/thumb/v7e-m+fp/hard/crtn.o
OUTPUT(ADC.elf elf32-littlearm)
LOAD linker stubs
LOAD d:/at32ide/platform/tools/gcc-arm-none-eabi-10.3-2021.10/bin/../lib/gcc/arm-none-eabi/10.3.1/../../../../arm-none-eabi/lib/thumb/v7e-m+fp/hard\libc.a
LOAD d:/at32ide/platform/tools/gcc-arm-none-eabi-10.3-2021.10/bin/../lib/gcc/arm-none-eabi/10.3.1/../../../../arm-none-eabi/lib/thumb/v7e-m+fp/hard\libm.a
LOAD d:/at32ide/platform/tools/gcc-arm-none-eabi-10.3-2021.10/bin/../lib/gcc/arm-none-eabi/10.3.1/thumb/v7e-m+fp/hard\libgcc.a

.debug_info     0x00000000     0xf150
 .debug_info    0x00000000      0x3cc ./user/at32f403a_407_clock.o
 .debug_info    0x000003cc      0x10e ./user/at32f403a_407_int.o
 .debug_info    0x000004da     0x2b8f ./user/main.o
 .debug_info    0x00003069     0x1922 ./firmware/at32f403a_407_adc.o
 .debug_info    0x0000498b     0x2336 ./firmware/at32f403a_407_crm.o
 .debug_info    0x00006cc1      0xe34 ./firmware/at32f403a_407_dma.o
 .debug_info    0x00007af5      0x504 ./firmware/at32f403a_407_exint.o
 .debug_info    0x00007ff9     0x1f20 ./firmware/at32f403a_407_gpio.o
 .debug_info    0x00009f19      0x9de ./firmware/at32f403a_407_misc.o
 .debug_info    0x0000a8f7     0x105a ./firmware/at32f403a_407_usart.o
 .debug_info    0x0000b951       0x22 ./cmsis/startup_at32f403a_407.o
 .debug_info    0x0000b973     0x1596 ./cmsis/system_at32f403a_407.o
 .debug_info    0x0000cf09     0x2247 ./bsp/at32f403a_407_board.o

.debug_abbrev   0x00000000     0x1721
 .debug_abbrev  0x00000000       0x78 ./user/at32f403a_407_clock.o
 .debug_abbrev  0x00000078       0x44 ./user/at32f403a_407_int.o
 .debug_abbrev  0x000000bc      0x267 ./user/main.o
 .debug_abbrev  0x00000323      0x23e ./firmware/at32f403a_407_adc.o
 .debug_abbrev  0x00000561      0x229 ./firmware/at32f403a_407_crm.o
 .debug_abbrev  0x0000078a      0x201 ./firmware/at32f403a_407_dma.o
 .debug_abbrev  0x0000098b      0x17b ./firmware/at32f403a_407_exint.o
 .debug_abbrev  0x00000b06      0x215 ./firmware/at32f403a_407_gpio.o
 .debug_abbrev  0x00000d1b      0x245 ./firmware/at32f403a_407_misc.o
 .debug_abbrev  0x00000f60      0x237 ./firmware/at32f403a_407_usart.o
 .debug_abbrev  0x00001197       0x12 ./cmsis/startup_at32f403a_407.o
 .debug_abbrev  0x000011a9      0x187 ./cmsis/system_at32f403a_407.o
 .debug_abbrev  0x00001330      0x3f1 ./bsp/at32f403a_407_board.o

.debug_aranges  0x00000000      0x6f8
 .debug_aranges
                0x00000000       0x20 ./user/at32f403a_407_clock.o
 .debug_aranges
                0x00000020       0x60 ./user/at32f403a_407_int.o
 .debug_aranges
                0x00000080       0x50 ./user/main.o
 .debug_aranges
                0x000000d0      0x128 ./firmware/at32f403a_407_adc.o
 .debug_aranges
                0x000001f8      0x130 ./firmware/at32f403a_407_crm.o
 .debug_aranges
                0x00000328       0x68 ./firmware/at32f403a_407_dma.o
 .debug_aranges
                0x00000390       0x58 ./firmware/at32f403a_407_exint.o
 .debug_aranges
                0x000003e8       0xa8 ./firmware/at32f403a_407_gpio.o
 .debug_aranges
                0x00000490       0x88 ./firmware/at32f403a_407_misc.o
 .debug_aranges
                0x00000518      0x100 ./firmware/at32f403a_407_usart.o
 .debug_aranges
                0x00000618       0x28 ./cmsis/startup_at32f403a_407.o
 .debug_aranges
                0x00000640       0x28 ./cmsis/system_at32f403a_407.o
 .debug_aranges
                0x00000668       0x90 ./bsp/at32f403a_407_board.o

.debug_ranges   0x00000000      0x630
 .debug_ranges  0x00000000       0x10 ./user/at32f403a_407_clock.o
 .debug_ranges  0x00000010       0x50 ./user/at32f403a_407_int.o
 .debug_ranges  0x00000060       0x40 ./user/main.o
 .debug_ranges  0x000000a0      0x118 ./firmware/at32f403a_407_adc.o
 .debug_ranges  0x000001b8      0x120 ./firmware/at32f403a_407_crm.o
 .debug_ranges  0x000002d8       0x58 ./firmware/at32f403a_407_dma.o
 .debug_ranges  0x00000330       0x48 ./firmware/at32f403a_407_exint.o
 .debug_ranges  0x00000378       0x98 ./firmware/at32f403a_407_gpio.o
 .debug_ranges  0x00000410       0x78 ./firmware/at32f403a_407_misc.o
 .debug_ranges  0x00000488       0xf0 ./firmware/at32f403a_407_usart.o
 .debug_ranges  0x00000578       0x20 ./cmsis/startup_at32f403a_407.o
 .debug_ranges  0x00000598       0x18 ./cmsis/system_at32f403a_407.o
 .debug_ranges  0x000005b0       0x80 ./bsp/at32f403a_407_board.o

.debug_line     0x00000000     0x358e
 .debug_line    0x00000000      0x1dd ./user/at32f403a_407_clock.o
 .debug_line    0x000001dd       0xfc ./user/at32f403a_407_int.o
 .debug_line    0x000002d9      0x3dd ./user/main.o
 .debug_line    0x000006b6      0x6e0 ./firmware/at32f403a_407_adc.o
 .debug_line    0x00000d96      0x820 ./firmware/at32f403a_407_crm.o
 .debug_line    0x000015b6      0x3b3 ./firmware/at32f403a_407_dma.o
 .debug_line    0x00001969      0x303 ./firmware/at32f403a_407_exint.o
 .debug_line    0x00001c6c      0x581 ./firmware/at32f403a_407_gpio.o
 .debug_line    0x000021ed      0x441 ./firmware/at32f403a_407_misc.o
 .debug_line    0x0000262e      0x574 ./firmware/at32f403a_407_usart.o
 .debug_line    0x00002ba2       0x7c ./cmsis/startup_at32f403a_407.o
 .debug_line    0x00002c1e      0x339 ./cmsis/system_at32f403a_407.o
 .debug_line    0x00002f57      0x637 ./bsp/at32f403a_407_board.o

.debug_str      0x00000000     0x68ad
 .debug_str     0x00000000      0x7be ./user/at32f403a_407_clock.o
                                0x801 (size before relaxing)
 .debug_str     0x000007be       0xac ./user/at32f403a_407_int.o
                                0x1f6 (size before relaxing)
 .debug_str     0x0000086a     0x217f ./user/main.o
                               0x233f (size before relaxing)
 .debug_str     0x000029e9      0xd7e ./firmware/at32f403a_407_adc.o
                               0x1842 (size before relaxing)
 .debug_str     0x00003767      0xfb2 ./firmware/at32f403a_407_crm.o
                               0x213b (size before relaxing)
 .debug_str     0x00004719      0xa01 ./firmware/at32f403a_407_dma.o
                                0xed2 (size before relaxing)
 .debug_str     0x0000511a      0x16e ./firmware/at32f403a_407_exint.o
                                0x41b (size before relaxing)
 .debug_str     0x00005288      0x714 ./firmware/at32f403a_407_gpio.o
                               0x13a2 (size before relaxing)
 .debug_str     0x0000599c      0x3ba ./firmware/at32f403a_407_misc.o
                                0xadd (size before relaxing)
 .debug_str     0x00005d56      0x5d9 ./firmware/at32f403a_407_usart.o
                                0xdce (size before relaxing)
 .debug_str     0x0000632f       0x2f ./cmsis/startup_at32f403a_407.o
                                 0x61 (size before relaxing)
 .debug_str     0x0000635e       0x68 ./cmsis/system_at32f403a_407.o
                                0xafa (size before relaxing)
 .debug_str     0x000063c6      0x4e7 ./bsp/at32f403a_407_board.o
                               0x142e (size before relaxing)

.comment        0x00000000       0x49
 .comment       0x00000000       0x49 ./user/at32f403a_407_clock.o
                                 0x4a (size before relaxing)
 .comment       0x00000049       0x4a ./user/at32f403a_407_int.o
 .comment       0x00000049       0x4a ./user/main.o
 .comment       0x00000049       0x4a ./firmware/at32f403a_407_adc.o
 .comment       0x00000049       0x4a ./firmware/at32f403a_407_crm.o
 .comment       0x00000049       0x4a ./firmware/at32f403a_407_dma.o
 .comment       0x00000049       0x4a ./firmware/at32f403a_407_exint.o
 .comment       0x00000049       0x4a ./firmware/at32f403a_407_gpio.o
 .comment       0x00000049       0x4a ./firmware/at32f403a_407_misc.o
 .comment       0x00000049       0x4a ./firmware/at32f403a_407_usart.o
 .comment       0x00000049       0x4a ./cmsis/system_at32f403a_407.o
 .comment       0x00000049       0x4a ./bsp/at32f403a_407_board.o

.debug_frame    0x00000000     0x2e0c
 .debug_frame   0x00000000       0x2c ./user/at32f403a_407_clock.o
 .debug_frame   0x0000002c      0x110 ./user/at32f403a_407_int.o
 .debug_frame   0x0000013c       0xf4 ./user/main.o
 .debug_frame   0x00000230      0x554 ./firmware/at32f403a_407_adc.o
 .debug_frame   0x00000784      0x568 ./firmware/at32f403a_407_crm.o
 .debug_frame   0x00000cec      0x1a0 ./firmware/at32f403a_407_dma.o
 .debug_frame   0x00000e8c      0x148 ./firmware/at32f403a_407_exint.o
 .debug_frame   0x00000fd4      0x2d0 ./firmware/at32f403a_407_gpio.o
 .debug_frame   0x000012a4      0x210 ./firmware/at32f403a_407_misc.o
 .debug_frame   0x000014b4      0x490 ./firmware/at32f403a_407_usart.o
 .debug_frame   0x00001944       0x54 ./cmsis/system_at32f403a_407.o
 .debug_frame   0x00001998      0x220 ./bsp/at32f403a_407_board.o
 .debug_frame   0x00001bb8       0xac d:/at32ide/platform/tools/gcc-arm-none-eabi-10.3-2021.10/bin/../lib/gcc/arm-none-eabi/10.3.1/thumb/v7e-m+fp/hard\libgcc.a(_arm_addsubdf3.o)
 .debug_frame   0x00001c64       0x50 d:/at32ide/platform/tools/gcc-arm-none-eabi-10.3-2021.10/bin/../lib/gcc/arm-none-eabi/10.3.1/thumb/v7e-m+fp/hard\libgcc.a(_arm_muldivdf3.o)
 .debug_frame   0x00001cb4       0x2c d:/at32ide/platform/tools/gcc-arm-none-eabi-10.3-2021.10/bin/../lib/gcc/arm-none-eabi/10.3.1/../../../../arm-none-eabi/lib/thumb/v7e-m+fp/hard\libg_nano.a(lib_a-init.o)
 .debug_frame   0x00001ce0       0x20 d:/at32ide/platform/tools/gcc-arm-none-eabi-10.3-2021.10/bin/../lib/gcc/arm-none-eabi/10.3.1/../../../../arm-none-eabi/lib/thumb/v7e-m+fp/hard\libg_nano.a(lib_a-memset.o)
 .debug_frame   0x00001d00       0xa0 d:/at32ide/platform/tools/gcc-arm-none-eabi-10.3-2021.10/bin/../lib/gcc/arm-none-eabi/10.3.1/../../../../arm-none-eabi/lib/thumb/v7e-m+fp/hard\libg_nano.a(lib_a-nano-vfprintf_float.o)
 .debug_frame   0x00001da0       0x60 d:/at32ide/platform/tools/gcc-arm-none-eabi-10.3-2021.10/bin/../lib/gcc/arm-none-eabi/10.3.1/../../../../arm-none-eabi/lib/thumb/v7e-m+fp/hard\libg_nano.a(lib_a-nano-vfprintf_i.o)
 .debug_frame   0x00001e00       0x74 d:/at32ide/platform/tools/gcc-arm-none-eabi-10.3-2021.10/bin/../lib/gcc/arm-none-eabi/10.3.1/../../../../arm-none-eabi/lib/thumb/v7e-m+fp/hard\libg_nano.a(lib_a-printf.o)
 .debug_frame   0x00001e74       0x3c d:/at32ide/platform/tools/gcc-arm-none-eabi-10.3-2021.10/bin/../lib/gcc/arm-none-eabi/10.3.1/../../../../arm-none-eabi/lib/thumb/v7e-m+fp/hard\libg_nano.a(lib_a-puts.o)
 .debug_frame   0x00001eb0       0x40 d:/at32ide/platform/tools/gcc-arm-none-eabi-10.3-2021.10/bin/../lib/gcc/arm-none-eabi/10.3.1/../../../../arm-none-eabi/lib/thumb/v7e-m+fp/hard\libg_nano.a(lib_a-wbuf.o)
 .debug_frame   0x00001ef0       0x2c d:/at32ide/platform/tools/gcc-arm-none-eabi-10.3-2021.10/bin/../lib/gcc/arm-none-eabi/10.3.1/../../../../arm-none-eabi/lib/thumb/v7e-m+fp/hard\libg_nano.a(lib_a-wsetup.o)
 .debug_frame   0x00001f1c       0x88 d:/at32ide/platform/tools/gcc-arm-none-eabi-10.3-2021.10/bin/../lib/gcc/arm-none-eabi/10.3.1/../../../../arm-none-eabi/lib/thumb/v7e-m+fp/hard\libg_nano.a(lib_a-dtoa.o)
 .debug_frame   0x00001fa4       0x5c d:/at32ide/platform/tools/gcc-arm-none-eabi-10.3-2021.10/bin/../lib/gcc/arm-none-eabi/10.3.1/../../../../arm-none-eabi/lib/thumb/v7e-m+fp/hard\libg_nano.a(lib_a-fflush.o)
 .debug_frame   0x00002000      0x14c d:/at32ide/platform/tools/gcc-arm-none-eabi-10.3-2021.10/bin/../lib/gcc/arm-none-eabi/10.3.1/../../../../arm-none-eabi/lib/thumb/v7e-m+fp/hard\libg_nano.a(lib_a-findfp.o)
 .debug_frame   0x0000214c       0x54 d:/at32ide/platform/tools/gcc-arm-none-eabi-10.3-2021.10/bin/../lib/gcc/arm-none-eabi/10.3.1/../../../../arm-none-eabi/lib/thumb/v7e-m+fp/hard\libg_nano.a(lib_a-fwalk.o)
 .debug_frame   0x000021a0       0x40 d:/at32ide/platform/tools/gcc-arm-none-eabi-10.3-2021.10/bin/../lib/gcc/arm-none-eabi/10.3.1/../../../../arm-none-eabi/lib/thumb/v7e-m+fp/hard\libg_nano.a(lib_a-localeconv.o)
 .debug_frame   0x000021e0       0xb0 d:/at32ide/platform/tools/gcc-arm-none-eabi-10.3-2021.10/bin/../lib/gcc/arm-none-eabi/10.3.1/../../../../arm-none-eabi/lib/thumb/v7e-m+fp/hard\libg_nano.a(lib_a-lock.o)
 .debug_frame   0x00002290       0x58 d:/at32ide/platform/tools/gcc-arm-none-eabi-10.3-2021.10/bin/../lib/gcc/arm-none-eabi/10.3.1/../../../../arm-none-eabi/lib/thumb/v7e-m+fp/hard\libg_nano.a(lib_a-makebuf.o)
 .debug_frame   0x000022e8       0x30 d:/at32ide/platform/tools/gcc-arm-none-eabi-10.3-2021.10/bin/../lib/gcc/arm-none-eabi/10.3.1/../../../../arm-none-eabi/lib/thumb/v7e-m+fp/hard\libg_nano.a(lib_a-malloc.o)
 .debug_frame   0x00002318       0x28 d:/at32ide/platform/tools/gcc-arm-none-eabi-10.3-2021.10/bin/../lib/gcc/arm-none-eabi/10.3.1/../../../../arm-none-eabi/lib/thumb/v7e-m+fp/hard\libg_nano.a(lib_a-memcpy-stub.o)
 .debug_frame   0x00002340      0x25c d:/at32ide/platform/tools/gcc-arm-none-eabi-10.3-2021.10/bin/../lib/gcc/arm-none-eabi/10.3.1/../../../../arm-none-eabi/lib/thumb/v7e-m+fp/hard\libg_nano.a(lib_a-mprec.o)
 .debug_frame   0x0000259c       0x30 d:/at32ide/platform/tools/gcc-arm-none-eabi-10.3-2021.10/bin/../lib/gcc/arm-none-eabi/10.3.1/../../../../arm-none-eabi/lib/thumb/v7e-m+fp/hard\libg_nano.a(lib_a-nano-callocr.o)
 .debug_frame   0x000025cc       0x38 d:/at32ide/platform/tools/gcc-arm-none-eabi-10.3-2021.10/bin/../lib/gcc/arm-none-eabi/10.3.1/../../../../arm-none-eabi/lib/thumb/v7e-m+fp/hard\libg_nano.a(lib_a-nano-freer.o)
 .debug_frame   0x00002604       0x4c d:/at32ide/platform/tools/gcc-arm-none-eabi-10.3-2021.10/bin/../lib/gcc/arm-none-eabi/10.3.1/../../../../arm-none-eabi/lib/thumb/v7e-m+fp/hard\libg_nano.a(lib_a-nano-mallocr.o)
 .debug_frame   0x00002650       0xac d:/at32ide/platform/tools/gcc-arm-none-eabi-10.3-2021.10/bin/../lib/gcc/arm-none-eabi/10.3.1/../../../../arm-none-eabi/lib/thumb/v7e-m+fp/hard\libg_nano.a(lib_a-nano-vfprintf.o)
 .debug_frame   0x000026fc       0x2c d:/at32ide/platform/tools/gcc-arm-none-eabi-10.3-2021.10/bin/../lib/gcc/arm-none-eabi/10.3.1/../../../../arm-none-eabi/lib/thumb/v7e-m+fp/hard\libg_nano.a(lib_a-sbrkr.o)
 .debug_frame   0x00002728       0x88 d:/at32ide/platform/tools/gcc-arm-none-eabi-10.3-2021.10/bin/../lib/gcc/arm-none-eabi/10.3.1/../../../../arm-none-eabi/lib/thumb/v7e-m+fp/hard\libg_nano.a(lib_a-stdio.o)
 .debug_frame   0x000027b0       0x2c d:/at32ide/platform/tools/gcc-arm-none-eabi-10.3-2021.10/bin/../lib/gcc/arm-none-eabi/10.3.1/../../../../arm-none-eabi/lib/thumb/v7e-m+fp/hard\libg_nano.a(lib_a-writer.o)
 .debug_frame   0x000027dc       0x40 d:/at32ide/platform/tools/gcc-arm-none-eabi-10.3-2021.10/bin/../lib/gcc/arm-none-eabi/10.3.1/../../../../arm-none-eabi/lib/thumb/v7e-m+fp/hard\libg_nano.a(lib_a-assert.o)
 .debug_frame   0x0000281c       0x2c d:/at32ide/platform/tools/gcc-arm-none-eabi-10.3-2021.10/bin/../lib/gcc/arm-none-eabi/10.3.1/../../../../arm-none-eabi/lib/thumb/v7e-m+fp/hard\libg_nano.a(lib_a-closer.o)
 .debug_frame   0x00002848       0x64 d:/at32ide/platform/tools/gcc-arm-none-eabi-10.3-2021.10/bin/../lib/gcc/arm-none-eabi/10.3.1/../../../../arm-none-eabi/lib/thumb/v7e-m+fp/hard\libg_nano.a(lib_a-fprintf.o)
 .debug_frame   0x000028ac       0x2c d:/at32ide/platform/tools/gcc-arm-none-eabi-10.3-2021.10/bin/../lib/gcc/arm-none-eabi/10.3.1/../../../../arm-none-eabi/lib/thumb/v7e-m+fp/hard\libg_nano.a(lib_a-fstatr.o)
 .debug_frame   0x000028d8       0x2c d:/at32ide/platform/tools/gcc-arm-none-eabi-10.3-2021.10/bin/../lib/gcc/arm-none-eabi/10.3.1/../../../../arm-none-eabi/lib/thumb/v7e-m+fp/hard\libg_nano.a(lib_a-isattyr.o)
 .debug_frame   0x00002904       0x48 d:/at32ide/platform/tools/gcc-arm-none-eabi-10.3-2021.10/bin/../lib/gcc/arm-none-eabi/10.3.1/../../../../arm-none-eabi/lib/thumb/v7e-m+fp/hard\libg_nano.a(lib_a-locale.o)
 .debug_frame   0x0000294c       0x2c d:/at32ide/platform/tools/gcc-arm-none-eabi-10.3-2021.10/bin/../lib/gcc/arm-none-eabi/10.3.1/../../../../arm-none-eabi/lib/thumb/v7e-m+fp/hard\libg_nano.a(lib_a-lseekr.o)
 .debug_frame   0x00002978       0x48 d:/at32ide/platform/tools/gcc-arm-none-eabi-10.3-2021.10/bin/../lib/gcc/arm-none-eabi/10.3.1/../../../../arm-none-eabi/lib/thumb/v7e-m+fp/hard\libg_nano.a(lib_a-mbtowc_r.o)
 .debug_frame   0x000029c0       0x30 d:/at32ide/platform/tools/gcc-arm-none-eabi-10.3-2021.10/bin/../lib/gcc/arm-none-eabi/10.3.1/../../../../arm-none-eabi/lib/thumb/v7e-m+fp/hard\libg_nano.a(lib_a-mlock.o)
 .debug_frame   0x000029f0       0x2c d:/at32ide/platform/tools/gcc-arm-none-eabi-10.3-2021.10/bin/../lib/gcc/arm-none-eabi/10.3.1/../../../../arm-none-eabi/lib/thumb/v7e-m+fp/hard\libg_nano.a(lib_a-readr.o)
 .debug_frame   0x00002a1c       0x5c d:/at32ide/platform/tools/gcc-arm-none-eabi-10.3-2021.10/bin/../lib/gcc/arm-none-eabi/10.3.1/../../../../arm-none-eabi/lib/thumb/v7e-m+fp/hard\libg_nano.a(lib_a-reent.o)
 .debug_frame   0x00002a78       0x3c d:/at32ide/platform/tools/gcc-arm-none-eabi-10.3-2021.10/bin/../lib/gcc/arm-none-eabi/10.3.1/../../../../arm-none-eabi/lib/thumb/v7e-m+fp/hard\libg_nano.a(lib_a-wctomb_r.o)
 .debug_frame   0x00002ab4       0x28 d:/at32ide/platform/tools/gcc-arm-none-eabi-10.3-2021.10/bin/../lib/gcc/arm-none-eabi/10.3.1/../../../../arm-none-eabi/lib/thumb/v7e-m+fp/hard\libg_nano.a(lib_a-abort.o)
 .debug_frame   0x00002adc       0xcc d:/at32ide/platform/tools/gcc-arm-none-eabi-10.3-2021.10/bin/../lib/gcc/arm-none-eabi/10.3.1/../../../../arm-none-eabi/lib/thumb/v7e-m+fp/hard\libg_nano.a(lib_a-signal.o)
 .debug_frame   0x00002ba8       0x3c d:/at32ide/platform/tools/gcc-arm-none-eabi-10.3-2021.10/bin/../lib/gcc/arm-none-eabi/10.3.1/../../../../arm-none-eabi/lib/thumb/v7e-m+fp/hard\libg_nano.a(lib_a-signalr.o)
 .debug_frame   0x00002be4       0xc4 d:/at32ide/platform/tools/gcc-arm-none-eabi-10.3-2021.10/bin/../lib/gcc/arm-none-eabi/10.3.1/thumb/v7e-m+fp/hard\libgcc.a(_arm_cmpdf2.o)
 .debug_frame   0x00002ca8       0x20 d:/at32ide/platform/tools/gcc-arm-none-eabi-10.3-2021.10/bin/../lib/gcc/arm-none-eabi/10.3.1/thumb/v7e-m+fp/hard\libgcc.a(_arm_unorddf2.o)
 .debug_frame   0x00002cc8       0x24 d:/at32ide/platform/tools/gcc-arm-none-eabi-10.3-2021.10/bin/../lib/gcc/arm-none-eabi/10.3.1/thumb/v7e-m+fp/hard\libgcc.a(_arm_fixdfsi.o)
 .debug_frame   0x00002cec       0x20 d:/at32ide/platform/tools/gcc-arm-none-eabi-10.3-2021.10/bin/../lib/gcc/arm-none-eabi/10.3.1/../../../../arm-none-eabi/lib/thumb/v7e-m+fp/hard\libnosys.a(close.o)
 .debug_frame   0x00002d0c       0x20 d:/at32ide/platform/tools/gcc-arm-none-eabi-10.3-2021.10/bin/../lib/gcc/arm-none-eabi/10.3.1/../../../../arm-none-eabi/lib/thumb/v7e-m+fp/hard\libnosys.a(fstat.o)
 .debug_frame   0x00002d2c       0x20 d:/at32ide/platform/tools/gcc-arm-none-eabi-10.3-2021.10/bin/../lib/gcc/arm-none-eabi/10.3.1/../../../../arm-none-eabi/lib/thumb/v7e-m+fp/hard\libnosys.a(getpid.o)
 .debug_frame   0x00002d4c       0x20 d:/at32ide/platform/tools/gcc-arm-none-eabi-10.3-2021.10/bin/../lib/gcc/arm-none-eabi/10.3.1/../../../../arm-none-eabi/lib/thumb/v7e-m+fp/hard\libnosys.a(isatty.o)
 .debug_frame   0x00002d6c       0x20 d:/at32ide/platform/tools/gcc-arm-none-eabi-10.3-2021.10/bin/../lib/gcc/arm-none-eabi/10.3.1/../../../../arm-none-eabi/lib/thumb/v7e-m+fp/hard\libnosys.a(kill.o)
 .debug_frame   0x00002d8c       0x20 d:/at32ide/platform/tools/gcc-arm-none-eabi-10.3-2021.10/bin/../lib/gcc/arm-none-eabi/10.3.1/../../../../arm-none-eabi/lib/thumb/v7e-m+fp/hard\libnosys.a(lseek.o)
 .debug_frame   0x00002dac       0x20 d:/at32ide/platform/tools/gcc-arm-none-eabi-10.3-2021.10/bin/../lib/gcc/arm-none-eabi/10.3.1/../../../../arm-none-eabi/lib/thumb/v7e-m+fp/hard\libnosys.a(read.o)
 .debug_frame   0x00002dcc       0x20 d:/at32ide/platform/tools/gcc-arm-none-eabi-10.3-2021.10/bin/../lib/gcc/arm-none-eabi/10.3.1/../../../../arm-none-eabi/lib/thumb/v7e-m+fp/hard\libnosys.a(sbrk.o)
 .debug_frame   0x00002dec       0x20 d:/at32ide/platform/tools/gcc-arm-none-eabi-10.3-2021.10/bin/../lib/gcc/arm-none-eabi/10.3.1/../../../../arm-none-eabi/lib/thumb/v7e-m+fp/hard\libnosys.a(_exit.o)

.stab           0x00000000       0xb4
 .stab          0x00000000       0x24 d:/at32ide/platform/tools/gcc-arm-none-eabi-10.3-2021.10/bin/../lib/gcc/arm-none-eabi/10.3.1/../../../../arm-none-eabi/lib/thumb/v7e-m+fp/hard\libnosys.a(close.o)
 .stab          0x00000024       0x18 d:/at32ide/platform/tools/gcc-arm-none-eabi-10.3-2021.10/bin/../lib/gcc/arm-none-eabi/10.3.1/../../../../arm-none-eabi/lib/thumb/v7e-m+fp/hard\libnosys.a(fstat.o)
                                 0x24 (size before relaxing)
 .stab          0x0000003c       0x18 d:/at32ide/platform/tools/gcc-arm-none-eabi-10.3-2021.10/bin/../lib/gcc/arm-none-eabi/10.3.1/../../../../arm-none-eabi/lib/thumb/v7e-m+fp/hard\libnosys.a(getpid.o)
                                 0x24 (size before relaxing)
 .stab          0x00000054       0x18 d:/at32ide/platform/tools/gcc-arm-none-eabi-10.3-2021.10/bin/../lib/gcc/arm-none-eabi/10.3.1/../../../../arm-none-eabi/lib/thumb/v7e-m+fp/hard\libnosys.a(isatty.o)
                                 0x24 (size before relaxing)
 .stab          0x0000006c       0x18 d:/at32ide/platform/tools/gcc-arm-none-eabi-10.3-2021.10/bin/../lib/gcc/arm-none-eabi/10.3.1/../../../../arm-none-eabi/lib/thumb/v7e-m+fp/hard\libnosys.a(kill.o)
                                 0x24 (size before relaxing)
 .stab          0x00000084       0x18 d:/at32ide/platform/tools/gcc-arm-none-eabi-10.3-2021.10/bin/../lib/gcc/arm-none-eabi/10.3.1/../../../../arm-none-eabi/lib/thumb/v7e-m+fp/hard\libnosys.a(lseek.o)
                                 0x24 (size before relaxing)
 .stab          0x0000009c       0x18 d:/at32ide/platform/tools/gcc-arm-none-eabi-10.3-2021.10/bin/../lib/gcc/arm-none-eabi/10.3.1/../../../../arm-none-eabi/lib/thumb/v7e-m+fp/hard\libnosys.a(read.o)
                                 0x24 (size before relaxing)

.stabstr        0x00000000      0x183
 .stabstr       0x00000000      0x183 d:/at32ide/platform/tools/gcc-arm-none-eabi-10.3-2021.10/bin/../lib/gcc/arm-none-eabi/10.3.1/../../../../arm-none-eabi/lib/thumb/v7e-m+fp/hard\libnosys.a(close.o)
